(dp1
S'output'
p2
S"<type 'exceptions.NameError'> name 'grid' is not defined"
p3
sS'layer'
p4
S'/home/ismael/Escritorio/web2py/applications/arduino_scada/views/default/index.html'
p5
sS'code'
p6
S'left_sidebar_enabled,right_sidebar_enabled=False,(\'message\' in globals())\nresponse.write(\'\\n\', escape=False)\nresponse.write(\'<!--[if HTML5]><![endif]-->\\n<!DOCTYPE html>\\n<!-- paulirish.com/2008/conditional-stylesheets-vs-css-hacks-answer-neither/ -->\\n<!--[if lt IE 7]><html class="ie ie6 ie-lte9 ie-lte8 ie-lte7 no-js" lang="\', escape=False)\nresponse.write(T.accepted_language or \'en\')\nresponse.write(\'"> <![endif]-->\\n<!--[if IE 7]><html class="ie ie7 ie-lte9 ie-lte8 ie-lte7 no-js" lang="\', escape=False)\nresponse.write(T.accepted_language or \'en\')\nresponse.write(\'"> <![endif]-->\\n<!--[if IE 8]><html class="ie ie8 ie-lte9 ie-lte8 no-js" lang="\', escape=False)\nresponse.write(T.accepted_language or \'en\')\nresponse.write(\'"> <![endif]-->\\n<!--[if IE 9]><html class="ie9 ie-lte9 no-js" lang="\', escape=False)\nresponse.write(T.accepted_language or \'en\')\nresponse.write(\'"> <![endif]-->\\n<!--[if (gt IE 9)|!(IE)]><!--> <html class="no-js" lang="\', escape=False)\nresponse.write(T.accepted_language or \'en\')\nresponse.write(\'"> <!--<![endif]-->\\n<head>\\n<title>\', escape=False)\nresponse.write(response.title or request.application)\nresponse.write(\'</title>\\n  <!--[if !HTML5]>\\n      <meta http-equiv="X-UA-Compatible" content="IE=edge\', escape=False)\nresponse.write(not request.is_local and \',chrome=1\' or \'\')\nresponse.write(\'">\\n  <![endif]-->\\n  <!-- www.phpied.com/conditional-comments-block-downloads/ -->\\n  <!-- Always force latest IE rendering engine\\n       (even in intranet) & Chrome Frame\\n       Remove this if you use the .htaccess -->\\n\\t   \\n  <meta charset="utf-8" />\\n\\n  <!-- http://dev.w3.org/html5/markup/meta.name.html -->\\n  <meta name="application-name" content="\', escape=False)\nresponse.write(request.application)\nresponse.write(\'" />\\n\\n  <!-- Speaking of Google, don\\\'t forget to set your site up:\\n       http://google.com/webmasters -->\\n  <meta name="google-site-verification" content="" />\\n\\n  <!--  Mobile Viewport Fix\\n        j.mp/mobileviewport & davidbcalhoun.com/2010/viewport-metatag\\n        device-width: Occupy full width of the screen in its current orientation\\n        initial-scale = 1.0 retains dimensions instead of zooming out if page height > device height\\n        user-scalable = yes allows the user to zoom in -->\\n  <meta name="viewport" content="width=device-width, initial-scale=1.0" />\\n\\n  <link rel="shortcut icon" href="\', escape=False)\nresponse.write(URL(\'static\',\'images/favicon.ico\'))\nresponse.write(\'" type="image/x-icon">\\n  <link rel="apple-touch-icon" href="\', escape=False)\nresponse.write(URL(\'static\',\'images/favicon.png\'))\nresponse.write(\'">\\n\\n  <!-- All JavaScript at the bottom, except for Modernizr which enables\\n       HTML5 elements & feature detects -->\\n  <script src="\', escape=False)\nresponse.write(URL(\'static\',\'js/modernizr.custom.js\'))\nresponse.write(\'"></script>\\n\\n  <!-- include stylesheets -->\\n  \', escape=False)\nresponse.files.insert(0,URL(\'static\',\'css/web2py.css\'))\nresponse.files.insert(1,URL(\'static\',\'css/bootstrap.min.css\'))\nresponse.files.insert(2,URL(\'static\',\'css/bootstrap-responsive.min.css\'))\nresponse.files.insert(3,URL(\'static\',\'css/web2py_bootstrap.css\'))\nresponse.write(\'\\n\\n  \', escape=False)\nresponse.write(\'<script type="text/javascript"><!--\\n    // These variables are used by the web2py_ajax_init function in web2py_ajax.js (which is loaded below).\\n    var w2p_ajax_confirm_message = "\', escape=False)\nresponse.write(T(\'Are you sure you want to delete this object?\'))\nresponse.write(\'";\\n    var w2p_ajax_disable_with_message = "\', escape=False)\nresponse.write(T(\'Working...\'))\nresponse.write(\'";\\n    var w2p_ajax_date_format = "\', escape=False)\nresponse.write(T(\'%Y-%m-%d\'))\nresponse.write(\'";\\n    var w2p_ajax_datetime_format = "\', escape=False)\nresponse.write(T(\'%Y-%m-%d %H:%M:%S\'))\nresponse.write(\'";\\n    var ajax_error_500 = \\\'\', escape=False)\nresponse.write(T.M(\'An error occured, please [[reload %s]] the page\') % URL(args=request.args, vars=request.get_vars))\nresponse.write("\'\\n    //--></script>\\n", escape=False)\nresponse.files.insert(0,URL(\'static\',\'js/jquery.js\'))\nresponse.files.insert(1,URL(\'static\',\'css/calendar.css\'))\nresponse.files.insert(2,URL(\'static\',\'js/calendar.js\'))\nresponse.files.insert(3,URL(\'static\',\'js/web2py.js\'))\nresponse.include_meta()\nresponse.include_files()\nresponse.write(\'\\n\', escape=False)\nresponse.write(\'\\n\\n  \', escape=False)\n# using sidebars need to know what sidebar you want to use\nleft_sidebar_enabled = globals().get(\'left_sidebar_enabled\',False)\nright_sidebar_enabled = globals().get(\'right_sidebar_enabled\',False)\nmiddle_columns = {0:\'span12\',1:\'span9\',2:\'span6\'}[\n(left_sidebar_enabled and 1 or 0)+(right_sidebar_enabled and 1 or 0)]\nresponse.write(\'\\n\\n  <!-- uncomment here to load jquery-ui\\n       <link rel="stylesheet" href="http://ajax.googleapis.com/ajax/libs/jqueryui/1.10.3/themes/ui-lightness/jquery-ui.css" type="text/css" media="all" />\\n       <script src="http://ajax.googleapis.com/ajax/libs/jqueryui/1.10.3/jquery-ui.min.js" type="text/javascript"></script>\\n       uncomment to load jquery-ui //-->\\n  <noscript><link href="\', escape=False)\nresponse.write(URL(\'static\', \'css/web2py_bootstrap_nojs.css\'))\nresponse.write(\'" rel="stylesheet" type="text/css" /></noscript>\\n  \', escape=False)\nresponse.write(\'\\n</head>\\n\\n<body>\\n  <!-- Navbar ================================================== -->\\n  <div class="navbar navbar-inverse">\\n    <div class="flash">\', escape=False)\nresponse.write(response.flash or \'\')\nresponse.write(\'</div>\\n    <div class="navbar-inner">\\n      <div class="container">\\n        \', escape=False)\nis_mobile=request.user_agent().is_mobile\nresponse.write(\'\\n        <!-- the next tag is necessary for bootstrap menus, do not remove -->\\n        <button type="button" class="btn btn-navbar" data-toggle="collapse" data-target=".nav-collapse" style="\', escape=False)\nresponse.write(\'display:none;\' if not is_mobile else \'\')\nresponse.write(\'">\\n          <span class="icon-bar"></span>\\n          <span class="icon-bar"></span>\\n          <span class="icon-bar"></span>\\n        </button>\\n        \', escape=False)\nresponse.write(response.logo or \'\')\nresponse.write(\'\\n        <ul id="navbar" class="nav pull-right">\', escape=False)\nresponse.write(\'auth\' in globals() and auth.navbar(mode="dropdown") or \'\')\nresponse.write(\'</ul>\\n        <div class="\', escape=False)\nresponse.write(\'nav-collapse\' if is_mobile else \'nav\')\nresponse.write(\'">\\n          \', escape=False)\nif response.menu:\n    response.write(\'\\n          \', escape=False)\n    response.write(MENU(response.menu, _class=\'mobile-menu nav\' if is_mobile else \'nav\',mobile=is_mobile,li_class=\'dropdown\',ul_class=\'dropdown-menu\'))\n    response.write(\'\\n          \', escape=False)\n    pass\nresponse.write(\'\\n        </div><!--/.nav-collapse -->\\n      </div>\\n    </div>\\n  </div><!--/top navbar -->\\n\\n  <div class="container">\\n    <!-- Masthead ================================================== -->\\n    <header class="mastheader row" id="header">\\n      \', escape=False)\nif response.title:\n    response.write(\'\\n        <div class="span12">\\n            <div class="page-header">\\n                <h1>\\n                    \', escape=False)\n    response.write(response.title)\n    response.write(\'\\n                    <small>\', escape=False)\n    response.write(response.subtitle or \'\')\n    response.write(\'</small>\\n                </h1>\\n            </div>\\n        </div>\\n\\t\', escape=False)\n    pass\nresponse.write(\'\\n    </header>\\n\\n    <section id="main" class="main row">\\n        \', escape=False)\nif left_sidebar_enabled:\n    response.write(\'\\n        <div class="span3 left-sidebar">\\n            \', escape=False)\n    response.write(\'\\n            <h3>Left Sidebar</h3>\\n            <p></p>\\n            \', escape=False)\n    response.write(\'\\n        </div>\\n        \', escape=False)\n    pass\nresponse.write(\'\\n\\n        <div class="\', escape=False)\nresponse.write(middle_columns)\nresponse.write(\'">\\n            \', escape=False)\nresponse.write(\'\\n            \', escape=False)\nresponse.write(\'\\n\\n\', escape=False)\nresponse.write(grid)\nresponse.write(\'\\n\\n<!DOCTYPE html>\\n\\n<html>\\n    <head>\\n\\t\\t\\n<svg\\n   xmlns:dc="http://purl.org/dc/elements/1.1/"\\n   xmlns:cc="http://creativecommons.org/ns#"\\n   xmlns:rdf="http://www.w3.org/1999/02/22-rdf-syntax-ns#"\\n   xmlns:svg="http://www.w3.org/2000/svg"\\n   xmlns="http://www.w3.org/2000/svg"\\n   xmlns:sodipodi="http://sodipodi.sourceforge.net/DTD/sodipodi-0.dtd"\\n   xmlns:inkscape="http://www.inkscape.org/namespaces/inkscape"\\n   width="611.09003"\\n   height="496.35999"\\n   id="svg2"\\n   version="1.1"\\n   inkscape:version="0.48.4 r9939"\\n   sodipodi:docname="drawing-1.svg">\\n  <defs\\n     id="defs4" />\\n  <sodipodi:namedview\\n     id="base"\\n     pagecolor="#ffffff"\\n     bordercolor="#666666"\\n     borderopacity="1.0"\\n     inkscape:pageopacity="0.0"\\n     inkscape:pageshadow="2"\\n     inkscape:zoom="0.49497475"\\n     inkscape:cx="440.90097"\\n     inkscape:cy="207.93088"\\n     inkscape:document-units="px"\\n     inkscape:current-layer="g3055"\\n     showgrid="false"\\n     inkscape:window-width="1364"\\n     inkscape:window-height="718"\\n     inkscape:window-x="0"\\n     inkscape:window-y="0"\\n     inkscape:window-maximized="1" />\\n  <metadata\\n     id="metadata7">\\n    <rdf:RDF>\\n      <cc:Work\\n         rdf:about="">\\n        <dc:format>image/svg+xml</dc:format>\\n        <dc:type\\n           rdf:resource="http://purl.org/dc/dcmitype/StillImage" />\\n        <dc:title />\\n      </cc:Work>\\n    </rdf:RDF>\\n  </metadata>\\n  <g\\n     inkscape:label="Layer 1"\\n     inkscape:groupmode="layer"\\n     id="layer1"\\n     transform="translate(0,-555.99425)">\\n    <g\\n       id="g3055"\\n       transform="matrix(1.327286,0,0,1.2518851,-4.4538002,196.49635)">\\n      <g\\n         transform="matrix(4.4917684,0,0,3.8924496,7.9421827,290.89629)"\\n         id="casa_completa">\\n        <path\\n           d="M 91.834836,29.000704 V 7.6693 c 0,-0.9279394 -0.870368,-1.6790217 -1.942785,-1.6790217 H 69.307598 c -1.072418,0 -1.942786,0.7510823 -1.942786,1.6790217 v 3.970325 L 51.65675,0.49316322 c -0.718831,-0.50818375 -1.748507,-0.50818375 -2.466042,0 L 0.93581697,34.731763 C 0.3024697,35.18174 0.06285909,35.927225 0.34003002,36.595476 0.61590534,37.263727 1.3476881,37.709227 2.168838,37.709227 h 1.6267588 v 60.076498 c 0,0.927938 0.8703677,1.67902 1.9427846,1.67902 H 95.109072 c 1.072425,0 1.942786,-0.751082 1.942786,-1.67902 V 37.708108 h 1.626761 c 0.821149,0 1.552931,-0.445501 1.828801,-1.113751 0.27718,-0.667132 0.0376,-1.413736 -0.595782,-1.863714 L 91.834836,29.000704 z M 71.250383,9.3483207 H 87.949266 V 26.24487 L 71.250383,14.395458 V 9.3483207 z M 50.423729,3.9631404 93.250478,34.350065 H 7.5969792 L 50.423729,3.9631404 z M 61.247631,96.106703 H 39.599826 v -36.64072 h 21.6491 v 36.64072 z m 31.91866,0 H 65.1332 V 57.786962 c 0,-0.927939 -0.870367,-1.679021 -1.942784,-1.679021 H 37.657042 c -1.072417,0 -1.942785,0.751082 -1.942785,1.679021 V 96.106703 H 7.681166 V 37.708108 h 85.485125 v 58.398595 z"\\n           id="casa"\\n           inkscape:connector-curvature="0"\\n           style="fill:#000000" />\\n        <rect\\n           style="fill:#aa4400;fill-opacity:1;stroke:#000000;stroke-opacity:1"\\n           id="puerta"\\n           width="23"\\n           height="36.864407"\\n           x="38.983051"\\n           y="59.322033" />\\n        <g\\n           id="bombilla"\\n           transform="matrix(0.22365778,0,0,0.26445843,11.090605,44.250944)">\\n          <path\\n             id="borde"\\n             d="M 72.25,16.551 C 66.279,10.582 58.34,7.294 49.896,7.294 c -8.445,0 -16.384,3.288 -22.354,9.258 -5.971,5.971 -9.259,13.91 -9.258,22.354 0,8.443 3.289,16.38 9.26,22.351 l 7.37,7.371 v 19.435 c 0,3.987 2.966,5.802 5.722,5.802 0.069,0 0.127,-10e-4 0.155,-0.003 H 58.64 l 0.117,0.002 c 0.625,0 1.854,-0.109 3.072,-0.835 1.002,-0.599 2.686,-2.054 2.686,-5.072 V 68.991 l 7.733,-7.734 C 84.572,48.932 84.572,28.877 72.25,16.551 z M 31.911,56.89 C 27.106,52.086 24.46,45.7 24.459,38.905 c 0,-6.794 2.645,-13.182 7.449,-17.986 4.804,-4.803 11.192,-7.449 17.987,-7.449 6.795,0 13.182,2.645 17.988,7.448 9.915,9.918 9.914,26.055 -0.002,35.972 l -9.543,9.543 v 19.98 c 0,1.065 -0.719,1.246 -1.107,1.272 L 42.263,87.67 42.209,87.673 c -0.009,0.001 -0.037,0.003 -0.077,0.003 -0.691,0 -1.042,-0.39 -1.042,-1.159 V 66.072 L 31.911,56.89 z"\\n             inkscape:connector-curvature="0" />\\n          <path\\n             id="casquillo1"\\n             d="m 54.567,70.26 h -9.904 c -1.135,0 -2.055,-0.919 -2.055,-2.054 0,-1.135 0.92,-2.055 2.055,-2.055 h 9.904 c 1.134,0 2.055,0.92 2.055,2.055 0,1.135 -0.921,2.054 -2.055,2.054 l 0,0 z"\\n             inkscape:connector-curvature="0" />\\n          <path\\n             id="casquillo2"\\n             d="m 54.567,77.724 h -9.904 c -1.135,0 -2.055,-0.921 -2.055,-2.055 0,-1.136 0.92,-2.055 2.055,-2.055 h 9.904 c 1.134,0 2.055,0.919 2.055,2.055 0,1.134 -0.921,2.055 -2.055,2.055 l 0,0 z"\\n             inkscape:connector-curvature="0" />\\n          <path\\n             id="casquillo3"\\n             d="m 54.567,85.184 h -9.904 c -1.135,0 -2.055,-0.921 -2.055,-2.056 0,-1.134 0.92,-2.054 2.055,-2.054 h 9.904 c 1.134,0 2.055,0.92 2.055,2.054 0,1.135 -0.921,2.056 -2.055,2.056 l 0,0 z"\\n             inkscape:connector-curvature="0" />\\n          <path\\n             id="rayo1"\\n             d="m 12.845,22.263 c -0.436,0 -0.877,-0.111 -1.281,-0.345 L 2.986,16.966 c -1.229,-0.71 -1.649,-2.28 -0.94,-3.509 0.709,-1.229 2.281,-1.65 3.508,-0.94 l 8.578,4.953 c 1.229,0.71 1.649,2.28 0.94,3.509 -0.475,0.823 -1.339,1.284 -2.227,1.284 l 0,0 z"\\n             inkscape:connector-curvature="0" />\\n          <path\\n             id="rayo2"\\n             d="M 12.473,39.583 H 2.568 C 1.15,39.583 0,38.434 0,37.015 0,35.597 1.15,34.447 2.568,34.447 h 9.904 c 1.418,0 2.568,1.15 2.568,2.568 0.001,1.419 -1.149,2.568 -2.567,2.568 l 0,0 z"\\n             inkscape:connector-curvature="0" />\\n          <path\\n             id="rayo5"\\n             d="m 97.184,39.227 h -9.905 c -1.418,0 -2.567,-1.15 -2.567,-2.569 0,-1.418 1.149,-2.568 2.567,-2.568 h 9.905 c 1.419,0 2.568,1.15 2.568,2.568 0,1.419 -1.149,2.569 -2.568,2.569 l 0,0 z"\\n             inkscape:connector-curvature="0" />\\n          <path\\n             id="rayo3"\\n             d="m 4.273,61.677 c -0.888,0 -1.751,-0.46 -2.227,-1.284 -0.709,-1.228 -0.289,-2.799 0.94,-3.508 l 8.578,-4.953 c 1.229,-0.711 2.799,-0.288 3.508,0.941 0.709,1.228 0.289,2.799 -0.94,3.508 L 5.554,61.333 C 5.15,61.566 4.709,61.677 4.273,61.677 l 0,0 z"\\n             inkscape:connector-curvature="0" />\\n          <path\\n             id="rayo4"\\n             d="m 87.146,22.354 c -0.887,0 -1.751,-0.46 -2.227,-1.285 -0.709,-1.228 -0.288,-2.798 0.939,-3.508 l 8.578,-4.953 c 1.229,-0.708 2.799,-0.288 3.509,0.941 0.709,1.228 0.288,2.799 -0.94,3.508 l -8.577,4.953 c -0.404,0.233 -0.846,0.344 -1.282,0.344 l 0,0 z"\\n             inkscape:connector-curvature="0" />\\n          <path\\n             id="rayo6"\\n             d="m 95.72,61.769 c -0.436,0 -0.878,-0.111 -1.282,-0.345 L 85.86,56.472 c -1.228,-0.71 -1.648,-2.28 -0.939,-3.508 0.709,-1.229 2.28,-1.651 3.509,-0.94 l 8.577,4.952 c 1.229,0.709 1.649,2.279 0.94,3.508 -0.477,0.824 -1.34,1.285 -2.227,1.285 l 0,0 z"\\n             inkscape:connector-curvature="0" />\\n          <path\\n             inkscape:connector-curvature="0"\\n             id="relleno_bombilla"\\n             d="M 41.970339,87.346492 C 41.566809,87.183665 41.440678,84.657 41.440678,76.73628 l 0,-10.396492 -5.826271,-6.02897 c -3.204449,-3.315932 -6.448199,-7.07206 -7.208332,-8.346948 -7.056453,-11.834998 -3.515754,-26.789215 8.128497,-34.330881 7.751279,-5.020293 19.022327,-5.01896 26.761365,0.0032 5.230211,3.394063 9.414648,9.162346 10.965326,15.115805 0.834072,3.20221 0.839212,9.054589 0.01081,12.307321 -1.336178,5.246522 -2.893331,7.563765 -9.830477,14.628995 l -6.475489,6.595056 0,10.414694 c 0,9.105954 -0.08423,10.447017 -0.670249,10.671894 -0.797454,0.306013 -14.56122,0.284971 -15.325514,-0.02343 l 0,5e-6 z m 13.782836,-2.497636 c 1.09835,-0.769318 1.231558,-2.37986 0.275881,-3.335538 -0.541326,-0.541326 -1.765187,-0.66586 -6.54377,-0.66586 -5.593719,0 -5.909802,0.04553 -6.53753,0.941741 -0.871768,1.244623 -0.832046,1.851937 0.187837,2.871818 0.759026,0.759025 1.412429,0.847458 6.26165,0.847458 4.214476,0 5.62287,-0.146166 6.355932,-0.659619 l 0,0 z m 0.433266,-7.475975 c 0.842815,-0.842817 0.604234,-2.766228 -0.433266,-3.492923 -0.722214,-0.505856 -2.098617,-0.659619 -5.904619,-0.659619 -2.729583,0 -5.43567,0.179754 -6.013527,0.399458 -1.39487,0.530326 -1.796183,1.911203 -0.936671,3.222983 0.669645,1.022008 0.777001,1.038576 6.730054,1.038576 4.140237,0 6.210035,-0.160483 6.558029,-0.508475 z m 0,-7.627118 c 0.279661,-0.279661 0.508474,-1.004238 0.508474,-1.61017 0,-1.946313 -0.574785,-2.118644 -7.066503,-2.118644 -6.011287,0 -6.054016,0.0068 -6.755021,1.076678 -0.564936,0.862204 -0.610896,1.284246 -0.230717,2.118644 0.473208,1.038581 0.49516,1.041966 6.755021,1.041966 4.319684,0 6.439008,-0.158737 6.788746,-0.508474 z"\\n             style="fill:#ffffff;fill-opacity:1;stroke:#000000;stroke-width:0.42372882;stroke-opacity:1" />\\n        </g>\\n      </g>\\n      <g\\n         id="termometro"\\n         transform="matrix(12.444394,0,0,10.411656,300.22122,455.33303)">\\n        <rect\\n           style="fill:#ff0000;fill-opacity:1;stroke:#000000;stroke-width:0.1;stroke-linecap:round;stroke-linejoin:round;stroke-miterlimit:4;stroke-opacity:1;stroke-dasharray:none"\\n           id="fijo"\\n           width="1.7423953"\\n           height="11.572904"\\n           x="4.5949039"\\n           y="1.8830394" />\\n        <rect\\n           y="1.8830394"\\n           x="4.5949039"\\n           height="12"\\n           width="1.7423953"\\n           id="nivel"\\n           style="fill:#ffffff;fill-opacity:1;stroke:#000000;stroke-width:0.1;stroke-linecap:round;stroke-linejoin:round;stroke-miterlimit:4;stroke-opacity:1;stroke-dasharray:none" />\\n        <path\\n           sodipodi:type="arc"\\n           style="fill:#ff0000;fill-opacity:1;stroke:#000000;stroke-width:0.07560623;stroke-miterlimit:4;stroke-opacity:1;stroke-dasharray:none"\\n           id="circulo_fijo"\\n           sodipodi:cx="2.9661016"\\n           sodipodi:cy="18.262712"\\n           sodipodi:rx="1.1864407"\\n           sodipodi:ry="1.2288135"\\n           d="m 4.1525424,18.262712 c 0,0.678655 -0.5311876,1.228814 -1.1864408,1.228814 -0.6552531,0 -1.1864407,-0.550159 -1.1864407,-1.228814 0,-0.678654 0.5311876,-1.228813 1.1864407,-1.228813 0.6552532,0 1.1864408,0.550159 1.1864408,1.228813 z"\\n           transform="matrix(1.8457642,0,0,1.7809639,-0.0509956,-17.186248)" />\\n      </g>\\n    </g>\\n  </g>\\n</svg>\\n\\n    </head>\\n    \\n    <body>\\n\\t\\t<br>\\n\\t\\t<h3> Lampara </h3>\\n\\t\\t<button id="ON">ON</button>\\n\\t\\t<button id="OFF">OFF</button>\\n\\t\\t\\t\\n\\t\\t<script src=\', escape=False)\nresponse.write(URL(\'static\',\'js/raphael-min.js\'))\nresponse.write(\'> </script>\\n\\t\\t\\n\\t\\t<script>\\n\\t\\t  \\n\\t\\t  jQuery("#rayo1").attr(\\\'style\\\',\\\'fill:white\\\');\\n\\t\\t  jQuery("#rayo2").attr(\\\'style\\\',\\\'fill:white\\\');\\n\\t\\t  jQuery("#rayo3").attr(\\\'style\\\',\\\'fill:white\\\');\\n\\t\\t  jQuery("#rayo4").attr(\\\'style\\\',\\\'fill:white\\\');\\n\\t\\t  jQuery("#rayo5").attr(\\\'style\\\',\\\'fill:white\\\');\\n\\t\\t  jQuery("#rayo6").attr(\\\'style\\\',\\\'fill:white\\\');\\n\\t\\t  \\n\\t\\t  var n=\\\'\\\';\\n\\t\\t  var datos={};\\n\\t\\t  var j;\\n\\t\\t  \\n\\t\\t  jQuery(document).ready(function()\\n\\t\\t  {\\n\\t\\t    temporizador = window.setInterval(temp_post, 100);\\n\\t\\t    \\n\\t\\t    jQuery("#ON").click(function() \\n\\t\\t    {\\n\\t\\t\\t  n=1;\\n\\t\\t\\t  j=0;\\n\\t\\t\\t  datos={\\\'Valor\\\': n};\\n\\t\\t\\t  jQuery("#relleno_bombilla").attr(\\\'style\\\',\\\'fill:yellow\\\'); \\n\\t\\t\\t  jQuery("#rayo1").attr(\\\'style\\\',\\\'fill:yellow\\\'); \\n\\t\\t\\t  jQuery("#rayo2").attr(\\\'style\\\',\\\'fill:yellow\\\'); \\n\\t\\t\\t  jQuery("#rayo3").attr(\\\'style\\\',\\\'fill:yellow\\\'); \\n\\t\\t\\t  jQuery("#rayo4").attr(\\\'style\\\',\\\'fill:yellow\\\'); \\n\\t\\t\\t  jQuery("#rayo5").attr(\\\'style\\\',\\\'fill:yellow\\\'); \\n\\t\\t\\t  jQuery("#rayo6").attr(\\\'style\\\',\\\'fill:yellow\\\'); \\n\\t\\t    });  \\n\\t\\t    \\n\\t\\t    jQuery("#OFF").click(function() \\n\\t\\t    {\\n\\t\\t\\t  n=0;\\n\\t\\t\\t  j=0;\\n\\t\\t\\t  datos={\\\'Valor\\\': n};\\n              jQuery("#relleno_bombilla").attr(\\\'style\\\',\\\'fill:white\\\'); \\n\\t\\t\\t  jQuery("#rayo1").attr(\\\'style\\\',\\\'fill:white\\\');\\n\\t\\t\\t  jQuery("#rayo2").attr(\\\'style\\\',\\\'fill:white\\\');\\n\\t\\t\\t  jQuery("#rayo3").attr(\\\'style\\\',\\\'fill:white\\\');\\n\\t\\t\\t  jQuery("#rayo4").attr(\\\'style\\\',\\\'fill:white\\\');\\n\\t\\t\\t  jQuery("#rayo5").attr(\\\'style\\\',\\\'fill:white\\\');\\n\\t\\t\\t  jQuery("#rayo6").attr(\\\'style\\\',\\\'fill:white\\\');\\n\\t\\t    }); \\n\\t\\t    \\n\\t\\t    function temp_post()\\n\\t\\t    {\\n\\t\\t\\t  if (j==0)\\n\\t\\t\\t  {\\n\\t\\t       //window.console.log(datos);\\n\\t\\t       jQuery.post("\', escape=False)\nresponse.write(URL(\'default\',\'recibe_datos.json\'))\nresponse.write(\'",datos, {contentType: \\\'application/json\\\'})\\n\\t\\t       .success(function(dic)\\n\\t\\t       {\\n\\t\\t\\t     window.console.log(dic);\\n\\t\\t\\t     jQuery("#nivel").attr(\\\'height\\\',dic["nivel"]);  // de 0 a 12\\n\\t\\n  \\t\\t\\t\\t if(dic["puerta"]==1)\\n\\t\\t\\t\\t {\\n\\t\\t\\t\\t   jQuery("#puerta").hide();\\n\\t\\t\\t\\t }\\n\\t\\t\\t\\t if(dic["puerta"]==0)\\n\\t\\t\\t\\t {\\n\\t\\t\\t\\t   jQuery("#puerta").show();\\n\\t\\t\\t\\t }\\t\\t\\n\\t\\t       });\\n\\t\\t      }\\n\\t\\t      else\\n\\t\\t      {\\n\\t\\t\\t    jQuery.post("\', escape=False)\nresponse.write(URL(\'default\',\'recibe_datos.json\'))\nresponse.write(\'", {contentType: \\\'application/json\\\'})\\n\\t\\t        .success(function(dic)\\n\\t\\t        {\\n\\t\\t\\t      window.console.log(dic);\\n\\t\\t\\t      jQuery("#nivel").attr(\\\'height\\\',dic["nivel"]);  // de 0 a 12\\n\\t\\n  \\t\\t\\t\\t  if(dic["puerta"]==1)\\n\\t\\t\\t\\t  {\\n\\t\\t\\t\\t    jQuery("#puerta").attr(\\\'width\\\',2);\\n\\t\\t\\t \\t  }\\n\\t\\t\\t\\t  if(dic["puerta"]==0)\\n\\t\\t\\t\\t  {\\n\\t\\t\\t\\t    jQuery("#puerta").attr(\\\'width\\\',23);\\n\\t\\t\\t\\t  }\\t\\t\\n\\t\\t        });\\n\\t\\t\\t  }\\n\\t\\t     j=1;\\n\\t\\t    } \\n\\t   });\\n\\t  \\n\\t\\t</script>\\n    </body>\\n</html>\\n\', escape=False)\nresponse.write(\'\\n            \', escape=False)\nresponse.write(\'\\n        </div>\\n\\n        \', escape=False)\nif right_sidebar_enabled:\n    response.write(\'\\n        <div class="span3">\\n            \', escape=False)\n    response.write(\'\\n            <h3>Right Sidebar</h3>\\n            <p></p>\\n            \', escape=False)\n    response.write(\'\\n        </div>\\n        \', escape=False)\n    pass\nresponse.write(\'\\n    </section><!--/main-->\\n\\n    <!-- Footer ================================================== -->\\n    <div class="row">\\n        <footer class="footer span12" id="footer">\\n            <div class="footer-content">\\n                \', escape=False)\nresponse.write(\' <!-- this is default footer -->\\n                <div class="copyright pull-left">\', escape=False)\nresponse.write(T(\'Copyright\'))\nresponse.write(\' &#169; \', escape=False)\nresponse.write(request.now.year)\nresponse.write(\'</div>\\n                <div id="poweredBy" class="pull-right">\\n                    \', escape=False)\nresponse.write(T(\'Powered by\'))\nresponse.write(\'\\n                    <a href="http://www.web2py.com/">web2py</a>\\n                </div>\\n                \', escape=False)\nresponse.write(\'\\n            </div>\\n        </footer>\\n    </div>\\n\\n  </div> <!-- /container -->\\n\\n  <!-- The javascript =============================================\\n       (Placed at the end of the document so the pages load faster) -->\\n  <script src="\', escape=False)\nresponse.write(URL(\'static\',\'js/bootstrap.min.js\'))\nresponse.write(\'"></script>\\n  <script src="\', escape=False)\nresponse.write(URL(\'static\',\'js/web2py_bootstrap.js\'))\nresponse.write(\'"></script>\\n  \\n  <script src="\', escape=False)\nresponse.write(URL(\'static\',\'js/raphael.js\'))\nresponse.write(\'"></script>\\n  <!--[if lt IE 7 ]>\\n      <script src="\', escape=False)\nresponse.write(URL(\'static\',\'js/dd_belatedpng.js\'))\nresponse.write(\'"></script>\\n      <script> DD_belatedPNG.fix(\\\'img, .png_bg\\\'); //fix any <img> or .png_bg background-images </script>\\n      <![endif]-->\\n  \\n  \', escape=False)\nif response.google_analytics_id:\n    response.write("\\n  <!-- Google Analytics -->\\n  <script>\\n    (function(i,s,o,g,r,a,m){i[\'GoogleAnalyticsObject\']=r;i[r]=i[r]||function(){\\n(i[r].q=i[r].q||[]).push(arguments)},i[r].l=1*new Date();a=s.createElement(o),\\nm=s.getElementsByTagName(o)[0];a.async=1;a.src=g;m.parentNode.insertBefore(a,m)\\n})(window,document,\'script\',\'//www.google-analytics.com/analytics.js\',\'ga\');\\n    ga(\'create\', \'", escape=False)\n    response.write(response.google_analytics_id)\n    response.write("\', \'auto\');\\n    ga(\'send\', \'pageview\');\\n  </script>\\n  <!-- End Google Analytics -->\\n  ", escape=False)\n    pass\nresponse.write(\'\\n  <script src="\', escape=False)\nresponse.write(URL(\'static\',\'js/share.js\',vars=dict(static=URL(\'static\',\'images\'))))\nresponse.write(\'"></script>\\n</body>\\n</html>\\n\\n\', escape=False)'
p7
sS'snapshot'
p8
(dp9
S'exception'
p10
(dp11
S'__hash__'
p12
S"<method-wrapper '__hash__' of exceptions.NameError object>"
p13
sS'__setattr__'
p14
S"<method-wrapper '__setattr__' of exceptions.NameError object>"
p15
sS'__reduce_ex__'
p16
S'<built-in method __reduce_ex__ of exceptions.NameError object>'
p17
sS'__getslice__'
p18
S"<method-wrapper '__getslice__' of exceptions.NameError object>"
p19
sS'__getitem__'
p20
S"<method-wrapper '__getitem__' of exceptions.NameError object>"
p21
sS'__setstate__'
p22
S'<built-in method __setstate__ of exceptions.NameError object>'
p23
sS'args'
p24
S'("name \'grid\' is not defined",)'
p25
sS'__reduce__'
p26
S'<built-in method __reduce__ of exceptions.NameError object>'
p27
sS'__str__'
p28
S"<method-wrapper '__str__' of exceptions.NameError object>"
p29
sS'__format__'
p30
S'<built-in method __format__ of exceptions.NameError object>'
p31
sS'__getattribute__'
p32
S"<method-wrapper '__getattribute__' of exceptions.NameError object>"
p33
sS'__class__'
p34
S"<type 'exceptions.NameError'>"
p35
sS'__unicode__'
p36
S'<built-in method __unicode__ of exceptions.NameError object>'
p37
sS'__delattr__'
p38
S"<method-wrapper '__delattr__' of exceptions.NameError object>"
p39
sS'__subclasshook__'
p40
S'<built-in method __subclasshook__ of type object>'
p41
sS'__repr__'
p42
S"<method-wrapper '__repr__' of exceptions.NameError object>"
p43
sS'__dict__'
p44
S'{}'
p45
sS'__sizeof__'
p46
S'<built-in method __sizeof__ of exceptions.NameError object>'
p47
sS'__doc__'
p48
S"'Name not found globally.'"
p49
sS'__init__'
p50
S"<method-wrapper '__init__' of exceptions.NameError object>"
p51
sS'__new__'
p52
S'<built-in method __new__ of type object>'
p53
ssS'evalue'
p54
S"name 'grid' is not defined"
p55
sS'request'
p56
cgluon.html
XML_unpickle
p57
(S's\xcbU\x00\x00<div><table><tr><td style="font-weight:bold;vertical-align:top;">ajax</td><td style="vertical-align:top;">:</td><td><div>False</div></td></tr><tr><td style="font-weight:bold;vertical-align:top;">application</td><td style="vertical-align:top;">:</td><td><div>arduino_scada</div></td></tr><tr><td style="font-weight:bold;vertical-align:top;">args</td><td style="vertical-align:top;">:</td><td><div><table></table></div></td></tr><tr><td style="font-weight:bold;vertical-align:top;">cid</td><td style="vertical-align:top;">:</td><td><div>None</div></td></tr><tr><td style="font-weight:bold;vertical-align:top;">client</td><td style="vertical-align:top;">:</td><td><div>127.0.0.1</div></td></tr><tr><td style="font-weight:bold;vertical-align:top;">controller</td><td style="vertical-align:top;">:</td><td><div>default</div></td></tr><tr><td style="font-weight:bold;vertical-align:top;">cookies</td><td style="vertical-align:top;">:</td><td><div><table><tr><td style="font-weight:bold;vertical-align:top;">session_id_admin</td><td style="vertical-align:top;">:</td><td><div>127.0.0.1-54119d7a-1a8a-469d-bb1a-7936101506b4<table><tr><td style="font-weight:bold;vertical-align:top;">comment</td><td style="vertical-align:top;">:</td><td><div></div></td></tr><tr><td style="font-weight:bold;vertical-align:top;">domain</td><td style="vertical-align:top;">:</td><td><div></div></td></tr><tr><td style="font-weight:bold;vertical-align:top;">expires</td><td style="vertical-align:top;">:</td><td><div></div></td></tr><tr><td style="font-weight:bold;vertical-align:top;">httponly</td><td style="vertical-align:top;">:</td><td><div></div></td></tr><tr><td style="font-weight:bold;vertical-align:top;">max-age</td><td style="vertical-align:top;">:</td><td><div></div></td></tr><tr><td style="font-weight:bold;vertical-align:top;">path</td><td style="vertical-align:top;">:</td><td><div></div></td></tr><tr><td style="font-weight:bold;vertical-align:top;">secure</td><td style="vertical-align:top;">:</td><td><div></div></td></tr><tr><td style="font-weight:bold;vertical-align:top;">version</td><td style="vertical-align:top;">:</td><td><div></div></td></tr></table></div></td></tr><tr><td style="font-weight:bold;vertical-align:top;">session_id_arduino_scada</td><td style="vertical-align:top;">:</td><td><div>127.0.0.1-a3b98bd8-fef9-42ca-ade8-50d788df8f6b<table><tr><td style="font-weight:bold;vertical-align:top;">comment</td><td style="vertical-align:top;">:</td><td><div></div></td></tr><tr><td style="font-weight:bold;vertical-align:top;">domain</td><td style="vertical-align:top;">:</td><td><div></div></td></tr><tr><td style="font-weight:bold;vertical-align:top;">expires</td><td style="vertical-align:top;">:</td><td><div></div></td></tr><tr><td style="font-weight:bold;vertical-align:top;">httponly</td><td style="vertical-align:top;">:</td><td><div></div></td></tr><tr><td style="font-weight:bold;vertical-align:top;">max-age</td><td style="vertical-align:top;">:</td><td><div></div></td></tr><tr><td style="font-weight:bold;vertical-align:top;">path</td><td style="vertical-align:top;">:</td><td><div></div></td></tr><tr><td style="font-weight:bold;vertical-align:top;">secure</td><td style="vertical-align:top;">:</td><td><div></div></td></tr><tr><td style="font-weight:bold;vertical-align:top;">version</td><td style="vertical-align:top;">:</td><td><div></div></td></tr></table></div></td></tr></table></div></td></tr><tr><td style="font-weight:bold;vertical-align:top;">env</td><td style="vertical-align:top;">:</td><td><div><table><tr><td style="font-weight:bold;vertical-align:top;">HTTP_ACCEPT</td><td style="vertical-align:top;">:</td><td><div>text/html,application/xhtml+xml,application/xml;q=0.9,image/webp,*/*;q=0.8</div></td></tr><tr><td style="font-weight:bold;vertical-align:top;">HTTP_ACCEPT_ENCODING</td><td style="vertical-align:top;">:</td><td><div>gzip,deflate,sdch</div></td></tr><tr><td style="font-weight:bold;vertical-align:top;">HTTP_ACCEPT_LANGUAGE</td><td style="vertical-align:top;">:</td><td><div>es-ES,es;q=0.8</div></td></tr><tr><td style="font-weight:bold;vertical-align:top;">HTTP_CACHE_CONTROL</td><td style="vertical-align:top;">:</td><td><div>max-age=0</div></td></tr><tr><td style="font-weight:bold;vertical-align:top;">HTTP_CONNECTION</td><td style="vertical-align:top;">:</td><td><div>keep-alive</div></td></tr><tr><td style="font-weight:bold;vertical-align:top;">HTTP_COOKIE</td><td style="vertical-align:top;">:</td><td><div>session_id_admin=127.0.0.1-54119d7a-1a8a-469d-bb1a-7936101506b4; session_id_arduino_scada=127.0.0.1-a3b98bd8-fef9-42ca-ade8-50d788df8f6b</div></td></tr><tr><td style="font-weight:bold;vertical-align:top;">HTTP_HOST</td><td style="vertical-align:top;">:</td><td><div>127.0.0.1:8000</div></td></tr><tr><td style="font-weight:bold;vertical-align:top;">HTTP_USER_AGENT</td><td style="vertical-align:top;">:</td><td><div>Mozilla/5.0 (X11; Linux x86_64) AppleWebKit/537.36 (KHTML, like Gecko) Chrome/38.0.2125.104 Safari/537.36</div></td></tr><tr><td style="font-weight:bold;vertical-align:top;">PATH_INFO</td><td style="vertical-align:top;">:</td><td><div>/arduino_scada</div></td></tr><tr><td style="font-weight:bold;vertical-align:top;">QUERY_STRING</td><td style="vertical-align:top;">:</td><td><div></div></td></tr><tr><td style="font-weight:bold;vertical-align:top;">REMOTE_ADDR</td><td style="vertical-align:top;">:</td><td><div>127.0.0.1</div></td></tr><tr><td style="font-weight:bold;vertical-align:top;">REMOTE_PORT</td><td style="vertical-align:top;">:</td><td><div>50290</div></td></tr><tr><td style="font-weight:bold;vertical-align:top;">REQUEST_METHOD</td><td style="vertical-align:top;">:</td><td><div>GET</div></td></tr><tr><td style="font-weight:bold;vertical-align:top;">SCRIPT_NAME</td><td style="vertical-align:top;">:</td><td><div></div></td></tr><tr><td style="font-weight:bold;vertical-align:top;">SERVER_NAME</td><td style="vertical-align:top;">:</td><td><div>ismael-HP-630-Notebook-PC</div></td></tr><tr><td style="font-weight:bold;vertical-align:top;">SERVER_PORT</td><td style="vertical-align:top;">:</td><td><div>8000</div></td></tr><tr><td style="font-weight:bold;vertical-align:top;">SERVER_PROTOCOL</td><td style="vertical-align:top;">:</td><td><div>HTTP/1.1</div></td></tr><tr><td style="font-weight:bold;vertical-align:top;">SERVER_SOFTWARE</td><td style="vertical-align:top;">:</td><td><div>Rocket 1.2.6</div></td></tr><tr><td style="font-weight:bold;vertical-align:top;">app_folders</td><td style="vertical-align:top;">:</td><td><div>set([&#x27;/home/ismael/Escritorio/web2py/applications/admin/&#x27;, &#x27;/home/ismael/Escritorio/web2py/applications/arduino_scada/&#x27;])</div></td></tr><tr><td style="font-weight:bold;vertical-align:top;">applications_parent</td><td style="vertical-align:top;">:</td><td><div>/home/ismael/Escritorio/web2py</div></td></tr><tr><td style="font-weight:bold;vertical-align:top;">cmd_args</td><td style="vertical-align:top;">:</td><td><div><table></table></div></td></tr><tr><td style="font-weight:bold;vertical-align:top;">cmd_options</td><td style="vertical-align:top;">:</td><td><div>&lt;Values at 0x2a4a290: {&#x27;verbose&#x27;: False, &#x27;ip&#x27;: &#x27;127.0.0.1&#x27;, &#x27;debuglevel&#x27;: 30, &#x27;with_scheduler&#x27;: False, &#x27;ips&#x27;: [&#x27;127.0.1.1&#x27;], &#x27;shutdown_timeout&#x27;: 5, &#x27;taskbar&#x27;: False, &#x27;with_coverage&#x27;: False, &#x27;scheduler_groups&#x27;: None, &#x27;port&#x27;: 8000, &#x27;maxthreads&#x27;: None, &#x27;softcron&#x27;: False, &#x27;server_name&#x27;: &#x27;ismael-HP-630-Notebook-PC&#x27;, &#x27;bpython&#x27;: False, &#x27;nogui&#x27;: True, &#x27;pid_filename&#x27;: &#x27;httpserver.pid&#x27;, &#x27;extcron&#x27;: False, &#x27;runcron&#x27;: False, &#x27;run_system_tests&#x27;: False, &#x27;test&#x27;: None, &#x27;folder&#x27;: &#x27;/home/ismael/Escritorio/web2py&#x27;, &#x27;config&#x27;: &#x27;&#x27;, &#x27;minthreads&#x27;: None, &#x27;shell&#x27;: None, &#x27;run&#x27;: &#x27;&#x27;, &#x27;log_filename&#x27;: &#x27;httpserver.log&#x27;, &#x27;profiler_dir&#x27;: None, &#x27;args&#x27;: [&#x27;&#x27;], &#x27;socket_timeout&#x27;: 5, &#x27;ssl_ca_certificate&#x27;: None, &#x27;scheduler&#x27;: None, &#x27;interfaces&#x27;: None, &#x27;ssl_private_key&#x27;: &#x27;&#x27;, &#x27;gae&#x27;: None, &#x27;password&#x27;: &#x27;1&#x27;, &#x27;request_queue_size&#x27;: 5, &#x27;ssl_certificate&#x27;: &#x27;&#x27;, &#x27;cronjob&#x27;: False, &#x27;numthreads&#x27;: None, &#x27;quiet&#x27;: False, &#x27;import_models&#x27;: False, &#x27;timeout&#x27;: 10, &#x27;plain&#x27;: False, &#x27;nobanner&#x27;: False}&gt;</div></td></tr><tr><td style="font-weight:bold;vertical-align:top;">db_sessions</td><td style="vertical-align:top;">:</td><td><div>set([])</div></td></tr><tr><td style="font-weight:bold;vertical-align:top;">debugging</td><td style="vertical-align:top;">:</td><td><div>False</div></td></tr><tr><td style="font-weight:bold;vertical-align:top;">gluon_parent</td><td style="vertical-align:top;">:</td><td><div>/home/ismael/Escritorio/web2py</div></td></tr><tr><td style="font-weight:bold;vertical-align:top;">http_accept</td><td style="vertical-align:top;">:</td><td><div>text/html,application/xhtml+xml,application/xml;q=0.9,image/webp,*/*;q=0.8</div></td></tr><tr><td style="font-weight:bold;vertical-align:top;">http_accept_encoding</td><td style="vertical-align:top;">:</td><td><div>gzip,deflate,sdch</div></td></tr><tr><td style="font-weight:bold;vertical-align:top;">http_accept_language</td><td style="vertical-align:top;">:</td><td><div>es-ES,es;q=0.8</div></td></tr><tr><td style="font-weight:bold;vertical-align:top;">http_cache_control</td><td style="vertical-align:top;">:</td><td><div>max-age=0</div></td></tr><tr><td style="font-weight:bold;vertical-align:top;">http_connection</td><td style="vertical-align:top;">:</td><td><div>keep-alive</div></td></tr><tr><td style="font-weight:bold;vertical-align:top;">http_cookie</td><td style="vertical-align:top;">:</td><td><div>session_id_admin=127.0.0.1-54119d7a-1a8a-469d-bb1a-7936101506b4; session_id_arduino_scada=127.0.0.1-a3b98bd8-fef9-42ca-ade8-50d788df8f6b</div></td></tr><tr><td style="font-weight:bold;vertical-align:top;">http_host</td><td style="vertical-align:top;">:</td><td><div>127.0.0.1:8000</div></td></tr><tr><td style="font-weight:bold;vertical-align:top;">http_user_agent</td><td style="vertical-align:top;">:</td><td><div>Mozilla/5.0 (X11; Linux x86_64) AppleWebKit/537.36 (KHTML, like Gecko) Chrome/38.0.2125.104 Safari/537.36</div></td></tr><tr><td style="font-weight:bold;vertical-align:top;">is_jython</td><td style="vertical-align:top;">:</td><td><div>False</div></td></tr><tr><td style="font-weight:bold;vertical-align:top;">is_pypy</td><td style="vertical-align:top;">:</td><td><div>False</div></td></tr><tr><td style="font-weight:bold;vertical-align:top;">is_source</td><td style="vertical-align:top;">:</td><td><div>True</div></td></tr><tr><td style="font-weight:bold;vertical-align:top;">local_hosts</td><td style="vertical-align:top;">:</td><td><div><table><tr><td><div>::1</div></td></tr><tr><td><div>127.0.1.1</div></td></tr><tr><td><div>::ffff:127.0.0.1</div></td></tr><tr><td><div>127.0.0.1</div></td></tr><tr><td><div>ismael-HP-630-Notebook-PC</div></td></tr></table></div></td></tr><tr><td style="font-weight:bold;vertical-align:top;">path_info</td><td style="vertical-align:top;">:</td><td><div>/arduino_scada</div></td></tr><tr><td style="font-weight:bold;vertical-align:top;">query_string</td><td style="vertical-align:top;">:</td><td><div></div></td></tr><tr><td style="font-weight:bold;vertical-align:top;">remote_addr</td><td style="vertical-align:top;">:</td><td><div>127.0.0.1</div></td></tr><tr><td style="font-weight:bold;vertical-align:top;">remote_port</td><td style="vertical-align:top;">:</td><td><div>50290</div></td></tr><tr><td style="font-weight:bold;vertical-align:top;">request_method</td><td style="vertical-align:top;">:</td><td><div>GET</div></td></tr><tr><td style="font-weight:bold;vertical-align:top;">request_uri</td><td style="vertical-align:top;">:</td><td><div>/arduino_scada</div></td></tr><tr><td style="font-weight:bold;vertical-align:top;">script_name</td><td style="vertical-align:top;">:</td><td><div></div></td></tr><tr><td style="font-weight:bold;vertical-align:top;">server_name</td><td style="vertical-align:top;">:</td><td><div>ismael-HP-630-Notebook-PC</div></td></tr><tr><td style="font-weight:bold;vertical-align:top;">server_port</td><td style="vertical-align:top;">:</td><td><div>8000</div></td></tr><tr><td style="font-weight:bold;vertical-align:top;">server_protocol</td><td style="vertical-align:top;">:</td><td><div>HTTP/1.1</div></td></tr><tr><td style="font-weight:bold;vertical-align:top;">server_software</td><td style="vertical-align:top;">:</td><td><div>Rocket 1.2.6</div></td></tr><tr><td style="font-weight:bold;vertical-align:top;">web2py_path</td><td style="vertical-align:top;">:</td><td><div>/home/ismael/Escritorio/web2py</div></td></tr><tr><td style="font-weight:bold;vertical-align:top;">web2py_version</td><td style="vertical-align:top;">:</td><td><div>2.9.11-stable+timestamp.2014.09.15.23.35.11</div></td></tr><tr><td style="font-weight:bold;vertical-align:top;">wsgi.errors</td><td style="vertical-align:top;">:</td><td><div>&lt;open file &#x27;&lt;stderr&gt;&#x27;, mode &#x27;w&#x27; at 0x7fbdbd5e01e0&gt;</div></td></tr><tr><td style="font-weight:bold;vertical-align:top;">wsgi.file_wrapper</td><td style="vertical-align:top;">:</td><td><div>&lt;class wsgiref.util.FileWrapper at 0x29df600&gt;</div></td></tr><tr><td style="font-weight:bold;vertical-align:top;">wsgi.input</td><td style="vertical-align:top;">:</td><td><div>&lt;socket._fileobject object at 0x7fbd944790d0&gt;</div></td></tr><tr><td style="font-weight:bold;vertical-align:top;">wsgi.multiprocess</td><td style="vertical-align:top;">:</td><td><div>False</div></td></tr><tr><td style="font-weight:bold;vertical-align:top;">wsgi.multithread</td><td style="vertical-align:top;">:</td><td><div>True</div></td></tr><tr><td style="font-weight:bold;vertical-align:top;">wsgi.run_once</td><td style="vertical-align:top;">:</td><td><div>False</div></td></tr><tr><td style="font-weight:bold;vertical-align:top;">wsgi.url_scheme</td><td style="vertical-align:top;">:</td><td><div>http</div></td></tr><tr><td style="font-weight:bold;vertical-align:top;">wsgi.version</td><td style="vertical-align:top;">:</td><td><div><table><tr><td><div>1</div></td></tr><tr><td><div>0</div></td></tr></table></div></td></tr><tr><td style="font-weight:bold;vertical-align:top;">wsgi_errors</td><td style="vertical-align:top;">:</td><td><div>&lt;open file &#x27;&lt;stderr&gt;&#x27;, mode &#x27;w&#x27; at 0x7fbdbd5e01e0&gt;</div></td></tr><tr><td style="font-weight:bold;vertical-align:top;">wsgi_file_wrapper</td><td style="vertical-align:top;">:</td><td><div>&lt;class wsgiref.util.FileWrapper at 0x29df600&gt;</div></td></tr><tr><td style="font-weight:bold;vertical-align:top;">wsgi_input</td><td style="vertical-align:top;">:</td><td><div>&lt;socket._fileobject object at 0x7fbd944790d0&gt;</div></td></tr><tr><td style="font-weight:bold;vertical-align:top;">wsgi_multiprocess</td><td style="vertical-align:top;">:</td><td><div>False</div></td></tr><tr><td style="font-weight:bold;vertical-align:top;">wsgi_multithread</td><td style="vertical-align:top;">:</td><td><div>True</div></td></tr><tr><td style="font-weight:bold;vertical-align:top;">wsgi_run_once</td><td style="vertical-align:top;">:</td><td><div>False</div></td></tr><tr><td style="font-weight:bold;vertical-align:top;">wsgi_url_scheme</td><td style="vertical-align:top;">:</td><td><div>http</div></td></tr><tr><td style="font-weight:bold;vertical-align:top;">wsgi_version</td><td style="vertical-align:top;">:</td><td><div><table><tr><td><div>1</div></td></tr><tr><td><div>0</div></td></tr></table></div></td></tr></table></div></td></tr><tr><td style="font-weight:bold;vertical-align:top;">extension</td><td style="vertical-align:top;">:</td><td><div>html</div></td></tr><tr><td style="font-weight:bold;vertical-align:top;">folder</td><td style="vertical-align:top;">:</td><td><div>/home/ismael/Escritorio/web2py/applications/arduino_scada/</div></td></tr><tr><td style="font-weight:bold;vertical-align:top;">function</td><td style="vertical-align:top;">:</td><td><div>index</div></td></tr><tr><td style="font-weight:bold;vertical-align:top;">global_settings</td><td style="vertical-align:top;">:</td><td><div><table><tr><td style="font-weight:bold;vertical-align:top;">app_folders</td><td style="vertical-align:top;">:</td><td><div>set([&#x27;/home/ismael/Escritorio/web2py/applications/admin/&#x27;, &#x27;/home/ismael/Escritorio/web2py/applications/arduino_scada/&#x27;])</div></td></tr><tr><td style="font-weight:bold;vertical-align:top;">applications_parent</td><td style="vertical-align:top;">:</td><td><div>/home/ismael/Escritorio/web2py</div></td></tr><tr><td style="font-weight:bold;vertical-align:top;">cmd_args</td><td style="vertical-align:top;">:</td><td><div><table></table></div></td></tr><tr><td style="font-weight:bold;vertical-align:top;">cmd_options</td><td style="vertical-align:top;">:</td><td><div>&lt;Values at 0x2a4a290: {&#x27;verbose&#x27;: False, &#x27;ip&#x27;: &#x27;127.0.0.1&#x27;, &#x27;debuglevel&#x27;: 30, &#x27;with_scheduler&#x27;: False, &#x27;ips&#x27;: [&#x27;127.0.1.1&#x27;], &#x27;shutdown_timeout&#x27;: 5, &#x27;taskbar&#x27;: False, &#x27;with_coverage&#x27;: False, &#x27;scheduler_groups&#x27;: None, &#x27;port&#x27;: 8000, &#x27;maxthreads&#x27;: None, &#x27;softcron&#x27;: False, &#x27;server_name&#x27;: &#x27;ismael-HP-630-Notebook-PC&#x27;, &#x27;bpython&#x27;: False, &#x27;nogui&#x27;: True, &#x27;pid_filename&#x27;: &#x27;httpserver.pid&#x27;, &#x27;extcron&#x27;: False, &#x27;runcron&#x27;: False, &#x27;run_system_tests&#x27;: False, &#x27;test&#x27;: None, &#x27;folder&#x27;: &#x27;/home/ismael/Escritorio/web2py&#x27;, &#x27;config&#x27;: &#x27;&#x27;, &#x27;minthreads&#x27;: None, &#x27;shell&#x27;: None, &#x27;run&#x27;: &#x27;&#x27;, &#x27;log_filename&#x27;: &#x27;httpserver.log&#x27;, &#x27;profiler_dir&#x27;: None, &#x27;args&#x27;: [&#x27;&#x27;], &#x27;socket_timeout&#x27;: 5, &#x27;ssl_ca_certificate&#x27;: None, &#x27;scheduler&#x27;: None, &#x27;interfaces&#x27;: None, &#x27;ssl_private_key&#x27;: &#x27;&#x27;, &#x27;gae&#x27;: None, &#x27;password&#x27;: &#x27;1&#x27;, &#x27;request_queue_size&#x27;: 5, &#x27;ssl_certificate&#x27;: &#x27;&#x27;, &#x27;cronjob&#x27;: False, &#x27;numthreads&#x27;: None, &#x27;quiet&#x27;: False, &#x27;import_models&#x27;: False, &#x27;timeout&#x27;: 10, &#x27;plain&#x27;: False, &#x27;nobanner&#x27;: False}&gt;</div></td></tr><tr><td style="font-weight:bold;vertical-align:top;">db_sessions</td><td style="vertical-align:top;">:</td><td><div>set([])</div></td></tr><tr><td style="font-weight:bold;vertical-align:top;">debugging</td><td style="vertical-align:top;">:</td><td><div>False</div></td></tr><tr><td style="font-weight:bold;vertical-align:top;">gluon_parent</td><td style="vertical-align:top;">:</td><td><div>/home/ismael/Escritorio/web2py</div></td></tr><tr><td style="font-weight:bold;vertical-align:top;">is_jython</td><td style="vertical-align:top;">:</td><td><div>False</div></td></tr><tr><td style="font-weight:bold;vertical-align:top;">is_pypy</td><td style="vertical-align:top;">:</td><td><div>False</div></td></tr><tr><td style="font-weight:bold;vertical-align:top;">is_source</td><td style="vertical-align:top;">:</td><td><div>True</div></td></tr><tr><td style="font-weight:bold;vertical-align:top;">local_hosts</td><td style="vertical-align:top;">:</td><td><div><table><tr><td><div>::1</div></td></tr><tr><td><div>127.0.1.1</div></td></tr><tr><td><div>::ffff:127.0.0.1</div></td></tr><tr><td><div>127.0.0.1</div></td></tr><tr><td><div>ismael-HP-630-Notebook-PC</div></td></tr></table></div></td></tr><tr><td style="font-weight:bold;vertical-align:top;">web2py_version</td><td style="vertical-align:top;">:</td><td><div>2.9.11-stable+timestamp.2014.09.15.23.35.11</div></td></tr></table></div></td></tr><tr><td style="font-weight:bold;vertical-align:top;">is_https</td><td style="vertical-align:top;">:</td><td><div>False</div></td></tr><tr><td style="font-weight:bold;vertical-align:top;">is_local</td><td style="vertical-align:top;">:</td><td><div>True</div></td></tr><tr><td style="font-weight:bold;vertical-align:top;">is_restful</td><td style="vertical-align:top;">:</td><td><div>False</div></td></tr><tr><td style="font-weight:bold;vertical-align:top;">is_sheduler</td><td style="vertical-align:top;">:</td><td><div>None</div></td></tr><tr><td style="font-weight:bold;vertical-align:top;">is_shell</td><td style="vertical-align:top;">:</td><td><div>None</div></td></tr><tr><td style="font-weight:bold;vertical-align:top;">now</td><td style="vertical-align:top;">:</td><td><div>datetime.datetime(2014, 10, 27, 16, 41, 5, 126003)</div></td></tr><tr><td style="font-weight:bold;vertical-align:top;">raw_args</td><td style="vertical-align:top;">:</td><td><div></div></td></tr><tr><td style="font-weight:bold;vertical-align:top;">raw_extension</td><td style="vertical-align:top;">:</td><td><div>None</div></td></tr><tr><td style="font-weight:bold;vertical-align:top;">url</td><td style="vertical-align:top;">:</td><td><div>/arduino_scada</div></td></tr><tr><td style="font-weight:bold;vertical-align:top;">utcnow</td><td style="vertical-align:top;">:</td><td><div>datetime.datetime(2014, 10, 27, 15, 41, 5, 126038)</div></td></tr><tr><td style="font-weight:bold;vertical-align:top;">uuid</td><td style="vertical-align:top;">:</td><td><div>arduino_scada/127.0.0.1.2014-10-27.16-41-05.0be20faa-b928-4464-8cb2-acffcd1d8599</div></td></tr><tr><td style="font-weight:bold;vertical-align:top;">wsgi</td><td style="vertical-align:top;">:</td><td><div>&lt;gluon.main.LazyWSGI object at 0x7fbd985c0390&gt;</div></td></tr></table></div>'
tRp58
sS'frames'
p59
(lp60
(dp61
S'file'
p62
S'/home/ismael/Escritorio/web2py/gluon/restricted.py'
p63
sS'dump'
p64
(dp65
S'environment'
p66
S"{'A': <class 'gluon.html.A'>, 'ANY_OF': <class 'gluon.validators.ANY_OF'>, 'ASSIGNJS': <function ASSIGNJS>, 'Auth': <class 'gluon.tools.Auth'>, 'B': <class 'gluon.html.B'>, 'BEAUTIFY': <class 'gluon.html.BEAUTIFY'>, 'BODY': <class 'gluon.html.BODY'>, 'BR': <class 'gluon.html.BR'>, 'BUTTON': <class 'gluon.html.BUTTON'>, 'CAT': <class 'gluon.html.CAT'>, ...}"
p67
sS'ccode'
p68
S'<code object <module> at 0x7fbd944793b0, file "/.../arduino_scada/views/default/index.html", line 1>'
p69
ssS'lnum'
p70
I224
sS'lines'
p71
(dp72
I224
S'        exec ccode in environment'
p73
sI225
S'    except HTTP:'
p74
sI226
S'        raise'
p75
sI227
S'    except RestrictedError:'
p76
sI228
S'        # do not encapsulate (obfuscate) the original RestrictedError'
p77
sI219
S'    try:'
p78
sI220
S'        if isinstance(code, types.CodeType):'
p79
sI221
S'            ccode = code'
p80
sI222
S'        else:'
p81
sI223
S'            ccode = compile2(code, layer)'
p82
ssS'call'
p83
S'(code=\'left_sidebar_enabled,right_sidebar_enabled=False..."></script>\\\\n</body>\\\\n</html>\\\\n\\\\n\\\', escape=False)\', environment={\'A\': <class \'gluon.html.A\'>, \'ANY_OF\': <class \'gluon.validators.ANY_OF\'>, \'ASSIGNJS\': <function ASSIGNJS>, \'Auth\': <class \'gluon.tools.Auth\'>, \'B\': <class \'gluon.html.B\'>, \'BEAUTIFY\': <class \'gluon.html.BEAUTIFY\'>, \'BODY\': <class \'gluon.html.BODY\'>, \'BR\': <class \'gluon.html.BR\'>, \'BUTTON\': <class \'gluon.html.BUTTON\'>, \'CAT\': <class \'gluon.html.CAT\'>, ...}, layer=\'/home/ismael/Escritorio/web2py/applications/arduino_scada/views/default/index.html\')'
p84
sS'func'
p85
S'restricted'
p86
sa(dp87
g62
S'/home/ismael/Escritorio/web2py/applications/arduino_scada/views/default/index.html'
p88
sg64
(dp89
S'path'
p90
S'undefined'
p91
ssg70
I95
sg71
(dp92
I96
S'response.write(\'\\n\\n<!DOCTYPE html>\\n\\n<html>\\n    <head>\\n\\t\\t\\n<svg\\n   xmlns:dc="http://purl.org/dc/elements/1.1/"\\n   xmlns:cc="http://creativecommons.org/ns#"\\n   xmlns:rdf="http://www.w3.org/1999/02/22-rdf-syntax-ns#"\\n   xmlns:svg="http://www.w3.org/2000/svg"\\n   xmlns="http://www.w3.org/2000/svg"\\n   xmlns:sodipodi="http://sodipodi.sourceforge.net/DTD/sodipodi-0.dtd"\\n   xmlns:inkscape="http://www.inkscape.org/namespaces/inkscape"\\n   width="611.09003"\\n   height="496.35999"\\n   id="svg2"\\n   version="1.1"\\n   inkscape:version="0.48.4 r9939"\\n   sodipodi:docname="drawing-1.svg">\\n  <defs\\n     id="defs4" />\\n  <sodipodi:namedview\\n     id="base"\\n     pagecolor="#ffffff"\\n     bordercolor="#666666"\\n     borderopacity="1.0"\\n     inkscape:pageopacity="0.0"\\n     inkscape:pageshadow="2"\\n     inkscape:zoom="0.49497475"\\n     inkscape:cx="440.90097"\\n     inkscape:cy="207.93088"\\n     inkscape:document-units="px"\\n     inkscape:current-layer="g3055"\\n     showgrid="false"\\n     inkscape:window-width="1364"\\n     inkscape:window-height="718"\\n     inkscape:window-x="0"\\n     inkscape:window-y="0"\\n     inkscape:window-maximized="1" />\\n  <metadata\\n     id="metadata7">\\n    <rdf:RDF>\\n      <cc:Work\\n         rdf:about="">\\n        <dc:format>image/svg+xml</dc:format>\\n        <dc:type\\n           rdf:resource="http://purl.org/dc/dcmitype/StillImage" />\\n        <dc:title />\\n      </cc:Work>\\n    </rdf:RDF>\\n  </metadata>\\n  <g\\n     inkscape:label="Layer 1"\\n     inkscape:groupmode="layer"\\n     id="layer1"\\n     transform="translate(0,-555.99425)">\\n    <g\\n       id="g3055"\\n       transform="matrix(1.327286,0,0,1.2518851,-4.4538002,196.49635)">\\n      <g\\n         transform="matrix(4.4917684,0,0,3.8924496,7.9421827,290.89629)"\\n         id="casa_completa">\\n        <path\\n           d="M 91.834836,29.000704 V 7.6693 c 0,-0.9279394 -0.870368,-1.6790217 -1.942785,-1.6790217 H 69.307598 c -1.072418,0 -1.942786,0.7510823 -1.942786,1.6790217 v 3.970325 L 51.65675,0.49316322 c -0.718831,-0.50818375 -1.748507,-0.50818375 -2.466042,0 L 0.93581697,34.731763 C 0.3024697,35.18174 0.06285909,35.927225 0.34003002,36.595476 0.61590534,37.263727 1.3476881,37.709227 2.168838,37.709227 h 1.6267588 v 60.076498 c 0,0.927938 0.8703677,1.67902 1.9427846,1.67902 H 95.109072 c 1.072425,0 1.942786,-0.751082 1.942786,-1.67902 V 37.708108 h 1.626761 c 0.821149,0 1.552931,-0.445501 1.828801,-1.113751 0.27718,-0.667132 0.0376,-1.413736 -0.595782,-1.863714 L 91.834836,29.000704 z M 71.250383,9.3483207 H 87.949266 V 26.24487 L 71.250383,14.395458 V 9.3483207 z M 50.423729,3.9631404 93.250478,34.350065 H 7.5969792 L 50.423729,3.9631404 z M 61.247631,96.106703 H 39.599826 v -36.64072 h 21.6491 v 36.64072 z m 31.91866,0 H 65.1332 V 57.786962 c 0,-0.927939 -0.870367,-1.679021 -1.942784,-1.679021 H 37.657042 c -1.072417,0 -1.942785,0.751082 -1.942785,1.679021 V 96.106703 H 7.681166 V 37.708108 h 85.485125 v 58.398595 z"\\n           id="casa"\\n           inkscape:connector-curvature="0"\\n           style="fill:#000000" />\\n        <rect\\n           style="fill:#aa4400;fill-opacity:1;stroke:#000000;stroke-opacity:1"\\n           id="puerta"\\n           width="23"\\n           height="36.864407"\\n           x="38.983051"\\n           y="59.322033" />\\n        <g\\n           id="bombilla"\\n           transform="matrix(0.22365778,0,0,0.26445843,11.090605,44.250944)">\\n          <path\\n             id="borde"\\n             d="M 72.25,16.551 C 66.279,10.582 58.34,7.294 49.896,7.294 c -8.445,0 -16.384,3.288 -22.354,9.258 -5.971,5.971 -9.259,13.91 -9.258,22.354 0,8.443 3.289,16.38 9.26,22.351 l 7.37,7.371 v 19.435 c 0,3.987 2.966,5.802 5.722,5.802 0.069,0 0.127,-10e-4 0.155,-0.003 H 58.64 l 0.117,0.002 c 0.625,0 1.854,-0.109 3.072,-0.835 1.002,-0.599 2.686,-2.054 2.686,-5.072 V 68.991 l 7.733,-7.734 C 84.572,48.932 84.572,28.877 72.25,16.551 z M 31.911,56.89 C 27.106,52.086 24.46,45.7 24.459,38.905 c 0,-6.794 2.645,-13.182 7.449,-17.986 4.804,-4.803 11.192,-7.449 17.987,-7.449 6.795,0 13.182,2.645 17.988,7.448 9.915,9.918 9.914,26.055 -0.002,35.972 l -9.543,9.543 v 19.98 c 0,1.065 -0.719,1.246 -1.107,1.272 L 42.263,87.67 42.209,87.673 c -0.009,0.001 -0.037,0.003 -0.077,0.003 -0.691,0 -1.042,-0.39 -1.042,-1.159 V 66.072 L 31.911,56.89 z"\\n             inkscape:connector-curvature="0" />\\n          <path\\n             id="casquillo1"\\n             d="m 54.567,70.26 h -9.904 c -1.135,0 -2.055,-0.919 -2.055,-2.054 0,-1.135 0.92,-2.055 2.055,-2.055 h 9.904 c 1.134,0 2.055,0.92 2.055,2.055 0,1.135 -0.921,2.054 -2.055,2.054 l 0,0 z"\\n             inkscape:connector-curvature="0" />\\n          <path\\n             id="casquillo2"\\n             d="m 54.567,77.724 h -9.904 c -1.135,0 -2.055,-0.921 -2.055,-2.055 0,-1.136 0.92,-2.055 2.055,-2.055 h 9.904 c 1.134,0 2.055,0.919 2.055,2.055 0,1.134 -0.921,2.055 -2.055,2.055 l 0,0 z"\\n             inkscape:connector-curvature="0" />\\n          <path\\n             id="casquillo3"\\n             d="m 54.567,85.184 h -9.904 c -1.135,0 -2.055,-0.921 -2.055,-2.056 0,-1.134 0.92,-2.054 2.055,-2.054 h 9.904 c 1.134,0 2.055,0.92 2.055,2.054 0,1.135 -0.921,2.056 -2.055,2.056 l 0,0 z"\\n             inkscape:connector-curvature="0" />\\n          <path\\n             id="rayo1"\\n             d="m 12.845,22.263 c -0.436,0 -0.877,-0.111 -1.281,-0.345 L 2.986,16.966 c -1.229,-0.71 -1.649,-2.28 -0.94,-3.509 0.709,-1.229 2.281,-1.65 3.508,-0.94 l 8.578,4.953 c 1.229,0.71 1.649,2.28 0.94,3.509 -0.475,0.823 -1.339,1.284 -2.227,1.284 l 0,0 z"\\n             inkscape:connector-curvature="0" />\\n          <path\\n             id="rayo2"\\n             d="M 12.473,39.583 H 2.568 C 1.15,39.583 0,38.434 0,37.015 0,35.597 1.15,34.447 2.568,34.447 h 9.904 c 1.418,0 2.568,1.15 2.568,2.568 0.001,1.419 -1.149,2.568 -2.567,2.568 l 0,0 z"\\n             inkscape:connector-curvature="0" />\\n          <path\\n             id="rayo5"\\n             d="m 97.184,39.227 h -9.905 c -1.418,0 -2.567,-1.15 -2.567,-2.569 0,-1.418 1.149,-2.568 2.567,-2.568 h 9.905 c 1.419,0 2.568,1.15 2.568,2.568 0,1.419 -1.149,2.569 -2.568,2.569 l 0,0 z"\\n             inkscape:connector-curvature="0" />\\n          <path\\n             id="rayo3"\\n             d="m 4.273,61.677 c -0.888,0 -1.751,-0.46 -2.227,-1.284 -0.709,-1.228 -0.289,-2.799 0.94,-3.508 l 8.578,-4.953 c 1.229,-0.711 2.799,-0.288 3.508,0.941 0.709,1.228 0.289,2.799 -0.94,3.508 L 5.554,61.333 C 5.15,61.566 4.709,61.677 4.273,61.677 l 0,0 z"\\n             inkscape:connector-curvature="0" />\\n          <path\\n             id="rayo4"\\n             d="m 87.146,22.354 c -0.887,0 -1.751,-0.46 -2.227,-1.285 -0.709,-1.228 -0.288,-2.798 0.939,-3.508 l 8.578,-4.953 c 1.229,-0.708 2.799,-0.288 3.509,0.941 0.709,1.228 0.288,2.799 -0.94,3.508 l -8.577,4.953 c -0.404,0.233 -0.846,0.344 -1.282,0.344 l 0,0 z"\\n             inkscape:connector-curvature="0" />\\n          <path\\n             id="rayo6"\\n             d="m 95.72,61.769 c -0.436,0 -0.878,-0.111 -1.282,-0.345 L 85.86,56.472 c -1.228,-0.71 -1.648,-2.28 -0.939,-3.508 0.709,-1.229 2.28,-1.651 3.509,-0.94 l 8.577,4.952 c 1.229,0.709 1.649,2.279 0.94,3.508 -0.477,0.824 -1.34,1.285 -2.227,1.285 l 0,0 z"\\n             inkscape:connector-curvature="0" />\\n          <path\\n             inkscape:connector-curvature="0"\\n             id="relleno_bombilla"\\n             d="M 41.970339,87.346492 C 41.566809,87.183665 41.440678,84.657 41.440678,76.73628 l 0,-10.396492 -5.826271,-6.02897 c -3.204449,-3.315932 -6.448199,-7.07206 -7.208332,-8.346948 -7.056453,-11.834998 -3.515754,-26.789215 8.128497,-34.330881 7.751279,-5.020293 19.022327,-5.01896 26.761365,0.0032 5.230211,3.394063 9.414648,9.162346 10.965326,15.115805 0.834072,3.20221 0.839212,9.054589 0.01081,12.307321 -1.336178,5.246522 -2.893331,7.563765 -9.830477,14.628995 l -6.475489,6.595056 0,10.414694 c 0,9.105954 -0.08423,10.447017 -0.670249,10.671894 -0.797454,0.306013 -14.56122,0.284971 -15.325514,-0.02343 l 0,5e-6 z m 13.782836,-2.497636 c 1.09835,-0.769318 1.231558,-2.37986 0.275881,-3.335538 -0.541326,-0.541326 -1.765187,-0.66586 -6.54377,-0.66586 -5.593719,0 -5.909802,0.04553 -6.53753,0.941741 -0.871768,1.244623 -0.832046,1.851937 0.187837,2.871818 0.759026,0.759025 1.412429,0.847458 6.26165,0.847458 4.214476,0 5.62287,-0.146166 6.355932,-0.659619 l 0,0 z m 0.433266,-7.475975 c 0.842815,-0.842817 0.604234,-2.766228 -0.433266,-3.492923 -0.722214,-0.505856 -2.098617,-0.659619 -5.904619,-0.659619 -2.729583,0 -5.43567,0.179754 -6.013527,0.399458 -1.39487,0.530326 -1.796183,1.911203 -0.936671,3.222983 0.669645,1.022008 0.777001,1.038576 6.730054,1.038576 4.140237,0 6.210035,-0.160483 6.558029,-0.508475 z m 0,-7.627118 c 0.279661,-0.279661 0.508474,-1.004238 0.508474,-1.61017 0,-1.946313 -0.574785,-2.118644 -7.066503,-2.118644 -6.011287,0 -6.054016,0.0068 -6.755021,1.076678 -0.564936,0.862204 -0.610896,1.284246 -0.230717,2.118644 0.473208,1.038581 0.49516,1.041966 6.755021,1.041966 4.319684,0 6.439008,-0.158737 6.788746,-0.508474 z"\\n             style="fill:#ffffff;fill-opacity:1;stroke:#000000;stroke-width:0.42372882;stroke-opacity:1" />\\n        </g>\\n      </g>\\n      <g\\n         id="termometro"\\n         transform="matrix(12.444394,0,0,10.411656,300.22122,455.33303)">\\n        <rect\\n           style="fill:#ff0000;fill-opacity:1;stroke:#000000;stroke-width:0.1;stroke-linecap:round;stroke-linejoin:round;stroke-miterlimit:4;stroke-opacity:1;stroke-dasharray:none"\\n           id="fijo"\\n           width="1.7423953"\\n           height="11.572904"\\n           x="4.5949039"\\n           y="1.8830394" />\\n        <rect\\n           y="1.8830394"\\n           x="4.5949039"\\n           height="12"\\n           width="1.7423953"\\n           id="nivel"\\n           style="fill:#ffffff;fill-opacity:1;stroke:#000000;stroke-width:0.1;stroke-linecap:round;stroke-linejoin:round;stroke-miterlimit:4;stroke-opacity:1;stroke-dasharray:none" />\\n        <path\\n           sodipodi:type="arc"\\n           style="fill:#ff0000;fill-opacity:1;stroke:#000000;stroke-width:0.07560623;stroke-miterlimit:4;stroke-opacity:1;stroke-dasharray:none"\\n           id="circulo_fijo"\\n           sodipodi:cx="2.9661016"\\n           sodipodi:cy="18.262712"\\n           sodipodi:rx="1.1864407"\\n           sodipodi:ry="1.2288135"\\n           d="m 4.1525424,18.262712 c 0,0.678655 -0.5311876,1.228814 -1.1864408,1.228814 -0.6552531,0 -1.1864407,-0.550159 -1.1864407,-1.228814 0,-0.678654 0.5311876,-1.228813 1.1864407,-1.228813 0.6552532,0 1.1864408,0.550159 1.1864408,1.228813 z"\\n           transform="matrix(1.8457642,0,0,1.7809639,-0.0509956,-17.186248)" />\\n      </g>\\n    </g>\\n  </g>\\n</svg>\\n\\n    </head>\\n    \\n    <body>\\n\\t\\t<br>\\n\\t\\t<h3> Lampara </h3>\\n\\t\\t<button id="ON">ON</button>\\n\\t\\t<button id="OFF">OFF</button>\\n\\t\\t\\t\\n\\t\\t<script src=\', escape=False)'
p93
sI97
S"response.write(URL('static','js/raphael-min.js'))"
p94
sI98
S'response.write(\'> </script>\\n\\t\\t\\n\\t\\t<script>\\n\\t\\t  \\n\\t\\t  jQuery("#rayo1").attr(\\\'style\\\',\\\'fill:white\\\');\\n\\t\\t  jQuery("#rayo2").attr(\\\'style\\\',\\\'fill:white\\\');\\n\\t\\t  jQuery("#rayo3").attr(\\\'style\\\',\\\'fill:white\\\');\\n\\t\\t  jQuery("#rayo4").attr(\\\'style\\\',\\\'fill:white\\\');\\n\\t\\t  jQuery("#rayo5").attr(\\\'style\\\',\\\'fill:white\\\');\\n\\t\\t  jQuery("#rayo6").attr(\\\'style\\\',\\\'fill:white\\\');\\n\\t\\t  \\n\\t\\t  var n=\\\'\\\';\\n\\t\\t  var datos={};\\n\\t\\t  var j;\\n\\t\\t  \\n\\t\\t  jQuery(document).ready(function()\\n\\t\\t  {\\n\\t\\t    temporizador = window.setInterval(temp_post, 100);\\n\\t\\t    \\n\\t\\t    jQuery("#ON").click(function() \\n\\t\\t    {\\n\\t\\t\\t  n=1;\\n\\t\\t\\t  j=0;\\n\\t\\t\\t  datos={\\\'Valor\\\': n};\\n\\t\\t\\t  jQuery("#relleno_bombilla").attr(\\\'style\\\',\\\'fill:yellow\\\'); \\n\\t\\t\\t  jQuery("#rayo1").attr(\\\'style\\\',\\\'fill:yellow\\\'); \\n\\t\\t\\t  jQuery("#rayo2").attr(\\\'style\\\',\\\'fill:yellow\\\'); \\n\\t\\t\\t  jQuery("#rayo3").attr(\\\'style\\\',\\\'fill:yellow\\\'); \\n\\t\\t\\t  jQuery("#rayo4").attr(\\\'style\\\',\\\'fill:yellow\\\'); \\n\\t\\t\\t  jQuery("#rayo5").attr(\\\'style\\\',\\\'fill:yellow\\\'); \\n\\t\\t\\t  jQuery("#rayo6").attr(\\\'style\\\',\\\'fill:yellow\\\'); \\n\\t\\t    });  \\n\\t\\t    \\n\\t\\t    jQuery("#OFF").click(function() \\n\\t\\t    {\\n\\t\\t\\t  n=0;\\n\\t\\t\\t  j=0;\\n\\t\\t\\t  datos={\\\'Valor\\\': n};\\n              jQuery("#relleno_bombilla").attr(\\\'style\\\',\\\'fill:white\\\'); \\n\\t\\t\\t  jQuery("#rayo1").attr(\\\'style\\\',\\\'fill:white\\\');\\n\\t\\t\\t  jQuery("#rayo2").attr(\\\'style\\\',\\\'fill:white\\\');\\n\\t\\t\\t  jQuery("#rayo3").attr(\\\'style\\\',\\\'fill:white\\\');\\n\\t\\t\\t  jQuery("#rayo4").attr(\\\'style\\\',\\\'fill:white\\\');\\n\\t\\t\\t  jQuery("#rayo5").attr(\\\'style\\\',\\\'fill:white\\\');\\n\\t\\t\\t  jQuery("#rayo6").attr(\\\'style\\\',\\\'fill:white\\\');\\n\\t\\t    }); \\n\\t\\t    \\n\\t\\t    function temp_post()\\n\\t\\t    {\\n\\t\\t\\t  if (j==0)\\n\\t\\t\\t  {\\n\\t\\t       //window.console.log(datos);\\n\\t\\t       jQuery.post("\', escape=False)'
p95
sI99
S"response.write(URL('default','recibe_datos.json'))"
p96
sI100
S'response.write(\'",datos, {contentType: \\\'application/json\\\'})\\n\\t\\t       .success(function(dic)\\n\\t\\t       {\\n\\t\\t\\t     window.console.log(dic);\\n\\t\\t\\t     jQuery("#nivel").attr(\\\'height\\\',dic["nivel"]);  // de 0 a 12\\n\\t\\n  \\t\\t\\t\\t if(dic["puerta"]==1)\\n\\t\\t\\t\\t {\\n\\t\\t\\t\\t   jQuery("#puerta").hide();\\n\\t\\t\\t\\t }\\n\\t\\t\\t\\t if(dic["puerta"]==0)\\n\\t\\t\\t\\t {\\n\\t\\t\\t\\t   jQuery("#puerta").show();\\n\\t\\t\\t\\t }\\t\\t\\n\\t\\t       });\\n\\t\\t      }\\n\\t\\t      else\\n\\t\\t      {\\n\\t\\t\\t    jQuery.post("\', escape=False)'
p97
sI101
S"response.write(URL('default','recibe_datos.json'))"
p98
sI102
S'response.write(\'", {contentType: \\\'application/json\\\'})\\n\\t\\t        .success(function(dic)\\n\\t\\t        {\\n\\t\\t\\t      window.console.log(dic);\\n\\t\\t\\t      jQuery("#nivel").attr(\\\'height\\\',dic["nivel"]);  // de 0 a 12\\n\\t\\n  \\t\\t\\t\\t  if(dic["puerta"]==1)\\n\\t\\t\\t\\t  {\\n\\t\\t\\t\\t    jQuery("#puerta").attr(\\\'width\\\',2);\\n\\t\\t\\t \\t  }\\n\\t\\t\\t\\t  if(dic["puerta"]==0)\\n\\t\\t\\t\\t  {\\n\\t\\t\\t\\t    jQuery("#puerta").attr(\\\'width\\\',23);\\n\\t\\t\\t\\t  }\\t\\t\\n\\t\\t        });\\n\\t\\t\\t  }\\n\\t\\t     j=1;\\n\\t\\t    } \\n\\t   });\\n\\t  \\n\\t\\t</script>\\n    </body>\\n</html>\\n\', escape=False)'
p99
sI103
S"response.write('\\n            ', escape=False)"
p100
sI104
S"response.write('\\n        </div>\\n\\n        ', escape=False)"
p101
sI105
S'if right_sidebar_enabled:'
p102
sI86
S'    response.write(\'\\n        <div class="span3 left-sidebar">\\n            \', escape=False)'
p103
sI87
S"    response.write('\\n            <h3>Left Sidebar</h3>\\n            <p></p>\\n            ', escape=False)"
p104
sI88
S"    response.write('\\n        </div>\\n        ', escape=False)"
p105
sI89
S'    pass'
p106
sI90
S'response.write(\'\\n\\n        <div class="\', escape=False)'
p107
sI91
S'response.write(middle_columns)'
p108
sI92
S'response.write(\'">\\n            \', escape=False)'
p109
sI93
S"response.write('\\n            ', escape=False)"
p110
sI94
S"response.write('\\n\\n', escape=False)"
p111
sI95
S'response.write(grid)'
p112
ssg83
S'()'
p113
sg85
S'<module>'
p114
sasS'pyver'
p115
S'Python 2.7.5+: /usr/bin/python (prefix: /usr)'
p116
sS'session'
p117
g57
(S's\x1a\x00\x00\x00<div><table></table></div>'
tRp118
sS'etype'
p119
S"<type 'exceptions.NameError'>"
p120
sS'date'
p121
S'Mon Oct 27 16:41:05 2014'
p122
sS'response'
p123
g57
(S's]5\x00\x00<div><table><tr><td style="font-weight:bold;vertical-align:top;">body</td><td style="vertical-align:top;">:</td><td><div>&lt;cStringIO.StringO object at 0x7fbd94229a08&gt;</div></td></tr><tr><td style="font-weight:bold;vertical-align:top;">cookies</td><td style="vertical-align:top;">:</td><td><div><table><tr><td style="font-weight:bold;vertical-align:top;">session_id_arduino_scada</td><td style="vertical-align:top;">:</td><td><div>127.0.0.1-a3b98bd8-fef9-42ca-ade8-50d788df8f6b<table><tr><td style="font-weight:bold;vertical-align:top;">comment</td><td style="vertical-align:top;">:</td><td><div></div></td></tr><tr><td style="font-weight:bold;vertical-align:top;">domain</td><td style="vertical-align:top;">:</td><td><div></div></td></tr><tr><td style="font-weight:bold;vertical-align:top;">expires</td><td style="vertical-align:top;">:</td><td><div></div></td></tr><tr><td style="font-weight:bold;vertical-align:top;">httponly</td><td style="vertical-align:top;">:</td><td><div></div></td></tr><tr><td style="font-weight:bold;vertical-align:top;">max-age</td><td style="vertical-align:top;">:</td><td><div></div></td></tr><tr><td style="font-weight:bold;vertical-align:top;">path</td><td style="vertical-align:top;">:</td><td><div>/</div></td></tr><tr><td style="font-weight:bold;vertical-align:top;">secure</td><td style="vertical-align:top;">:</td><td><div></div></td></tr><tr><td style="font-weight:bold;vertical-align:top;">version</td><td style="vertical-align:top;">:</td><td><div></div></td></tr></table></div></td></tr></table></div></td></tr><tr><td style="font-weight:bold;vertical-align:top;">delimiters</td><td style="vertical-align:top;">:</td><td><div><table><tr><td><div>{{</div></td></tr><tr><td><div>}}</div></td></tr></table></div></td></tr><tr><td style="font-weight:bold;vertical-align:top;">files</td><td style="vertical-align:top;">:</td><td><div><table><tr><td><div>/arduino_scada/static/js/jquery.js</div></td></tr><tr><td><div>/arduino_scada/static/css/calendar.css</div></td></tr><tr><td><div>/arduino_scada/static/js/calendar.js</div></td></tr><tr><td><div>/arduino_scada/static/js/web2py.js</div></td></tr><tr><td><div>/arduino_scada/static/css/web2py.css</div></td></tr><tr><td><div>/arduino_scada/static/css/bootstrap.min.css</div></td></tr><tr><td><div>/arduino_scada/static/css/bootstrap-responsive.min.css</div></td></tr><tr><td><div>/arduino_scada/static/css/web2py_bootstrap.css</div></td></tr></table></div></td></tr><tr><td style="font-weight:bold;vertical-align:top;">flash</td><td style="vertical-align:top;">:</td><td><div>\xc2\xa1Bienvenido a web2py!</div></td></tr><tr><td style="font-weight:bold;vertical-align:top;">form_label_separator</td><td style="vertical-align:top;">:</td><td><div>: </div></td></tr><tr><td style="font-weight:bold;vertical-align:top;">formstyle</td><td style="vertical-align:top;">:</td><td><div>table3cols</div></td></tr><tr><td style="font-weight:bold;vertical-align:top;">generic_patterns</td><td style="vertical-align:top;">:</td><td><div><table><tr><td><div>*</div></td></tr></table></div></td></tr><tr><td style="font-weight:bold;vertical-align:top;">google_analytics_id</td><td style="vertical-align:top;">:</td><td><div>None</div></td></tr><tr><td style="font-weight:bold;vertical-align:top;">headers</td><td style="vertical-align:top;">:</td><td><div><table><tr><td style="font-weight:bold;vertical-align:top;">X-Powered-By</td><td style="vertical-align:top;">:</td><td><div>web2py</div></td></tr></table></div></td></tr><tr><td style="font-weight:bold;vertical-align:top;">logo</td><td style="vertical-align:top;">:</td><td><div><a class="brand" href="http://www.web2py.com/"><b>web<span>2</span>py</b>&trade;&nbsp;</a></div></td></tr><tr><td style="font-weight:bold;vertical-align:top;">menu</td><td style="vertical-align:top;">:</td><td><div><table><tr><td><div><table><tr><td><div>Inicio</div></td></tr><tr><td><div>False</div></td></tr><tr><td><div>/arduino_scada/default/index</div></td></tr><tr><td><div><table></table></div></td></tr></table></div></td></tr><tr><td><div><table><tr><td><div><span class="highlighted">web2py</span></div></td></tr><tr><td><div>False</div></td></tr><tr><td><div>http://web2py.com</div></td></tr><tr><td><div><table><tr><td><div><table><tr><td><div>Mis Sitios</div></td></tr><tr><td><div>False</div></td></tr><tr><td><div>/admin/default/site</div></td></tr></table></div></td></tr><tr><td><div><table><tr><td><div>Esta Aplicaci\xc3\xb3n</div></td></tr><tr><td><div>False</div></td></tr><tr><td><div>/admin/default/design/arduino_scada</div></td></tr><tr><td><div>[(&lt;lazyT &#x27;Controller&#x27;&gt;, False, &#x27;/admin/default/edit/arduino_scada/controllers/default.py&#x27;), (&lt;lazyT &#x27;View&#x27;&gt;, False, &#x27;/admin/default/edit/arduino_scada/views/default/index.html&#x27;), (&lt;lazyT &#x27;Layout&#x27;&gt;, False, &#x27;/admin/default/edit/arduino_scada/views/layout.html&#x27;), (&lt;lazyT &#x27;Stylesheet&#x27;&gt;, False, &#x27;/admin/default/edit/arduino_scada/static/css/web2py.css&#x27;), (&lt;lazyT &#x27;DB Model&#x27;&gt;, False, &#x27;/admin/default/edit/arduino_scada/models/db.py&#x27;), (&lt;lazyT &#x27;Menu Model&#x27;&gt;, False, &#x27;/admin/default/edit/arduino_scada/models/menu.py&#x27;), (&lt;lazyT &#x27;Database&#x27;&gt;, False, &#x27;/arduino_scada/appadmin/index&#x27;), (&lt;lazyT &#x27;Errors&#x27;&gt;, False, &#x27;/admin/default/errors/arduino_scada&#x27;), (&lt;lazyT &#x27;About&#x27;&gt;, False, &#x27;/admin/default/about/arduino_scada&#x27;)]</div></td></tr></table></div></td></tr><tr><td><div><table><tr><td><div>web2py.com</div></td></tr><tr><td><div>False</div></td></tr><tr><td><div>http://www.web2py.com</div></td></tr><tr><td><div>[(&lt;lazyT &#x27;Download&#x27;&gt;, False, &#x27;http://www.web2py.com/examples/default/download&#x27;), (&lt;lazyT &#x27;Support&#x27;&gt;, False, &#x27;http://www.web2py.com/examples/default/support&#x27;), (&lt;lazyT &#x27;Demo&#x27;&gt;, False, &#x27;http://web2py.com/demo_admin&#x27;), (&lt;lazyT &#x27;Quick Examples&#x27;&gt;, False, &#x27;http://web2py.com/examples/default/examples&#x27;), (&lt;lazyT &#x27;FAQ&#x27;&gt;, False, &#x27;http://web2py.com/AlterEgo&#x27;), (&lt;lazyT &#x27;Videos&#x27;&gt;, False, &#x27;http://www.web2py.com/examples/default/videos/&#x27;), (&lt;lazyT &#x27;Free Applications&#x27;&gt;, False, &#x27;http://web2py.com/appliances&#x27;), (&lt;lazyT &#x27;Plugins&#x27;&gt;, False, &#x27;http://web2py.com/plugins&#x27;), (&lt;lazyT &#x27;Layouts&#x27;&gt;, False, &#x27;http://web2py.com/layouts&#x27;), (&lt;lazyT &#x27;Recipes&#x27;&gt;, False, &#x27;http://web2pyslices.com/&#x27;), (&lt;lazyT &#x27;Semantic&#x27;&gt;, False, &#x27;http://web2py.com/semantic&#x27;)]</div></td></tr></table></div></td></tr><tr><td><div><table><tr><td><div>Documentaci\xc3\xb3n</div></td></tr><tr><td><div>False</div></td></tr><tr><td><div>http://www.web2py.com/book</div></td></tr><tr><td><div>[(&lt;lazyT &#x27;Preface&#x27;&gt;, False, &#x27;http://www.web2py.com/book/default/chapter/00&#x27;), (&lt;lazyT &#x27;Introduction&#x27;&gt;, False, &#x27;http://www.web2py.com/book/default/chapter/01&#x27;), (&lt;lazyT &#x27;Python&#x27;&gt;, False, &#x27;http://www.web2py.com/book/default/chapter/02&#x27;), (&lt;lazyT &#x27;Overview&#x27;&gt;, False, &#x27;http://www.web2py.com/book/default/chapter/03&#x27;), (&lt;lazyT &#x27;The Core&#x27;&gt;, False, &#x27;http://www.web2py.com/book/default/chapter/04&#x27;), (&lt;lazyT &#x27;The Views&#x27;&gt;, False, &#x27;http://www.web2py.com/book/default/chapter/05&#x27;), (&lt;lazyT &#x27;Database&#x27;&gt;, False, &#x27;http://www.web2py.com/book/default/chapter/06&#x27;), (&lt;lazyT &#x27;Forms and Validators&#x27;&gt;, False, &#x27;http://www.web2py.com/book/default/chapter/07&#x27;), (&lt;lazyT &#x27;Email and SMS&#x27;&gt;, False, &#x27;http://www.web2py.com/book/default/chapter/08&#x27;), (&lt;lazyT &#x27;Access Control&#x27;&gt;, False, &#x27;http://www.web2py.com/book/default/chapter/09&#x27;), (&lt;lazyT &#x27;Services&#x27;&gt;, False, &#x27;http://www.web2py.com/book/default/chapter/10&#x27;), (&lt;lazyT &#x27;Ajax Recipes&#x27;&gt;, False, &#x27;http://www.web2py.com/book/default/chapter/11&#x27;), (&lt;lazyT &#x27;Components and Plugins&#x27;&gt;, False, &#x27;http://www.web2py.com/book/default/chapter/12&#x27;), (&lt;lazyT &#x27;Deployment Recipes&#x27;&gt;, False, &#x27;http://www.web2py.com/book/default/chapter/13&#x27;), (&lt;lazyT &#x27;Other Recipes&#x27;&gt;, False, &#x27;http://www.web2py.com/book/default/chapter/14&#x27;), (&lt;lazyT &#x27;Buy this book&#x27;&gt;, False, &#x27;http://stores.lulu.com/web2py&#x27;)]</div></td></tr></table></div></td></tr><tr><td><div><table><tr><td><div>Comunidad</div></td></tr><tr><td><div>False</div></td></tr><tr><td><div>None</div></td></tr><tr><td><div>[(&lt;lazyT &#x27;Groups&#x27;&gt;, False, &#x27;http://www.web2py.com/examples/default/usergroups&#x27;), (&lt;lazyT &#x27;Twitter&#x27;&gt;, False, &#x27;http://twitter.com/web2py&#x27;), (&lt;lazyT &#x27;Live Chat&#x27;&gt;, False, &#x27;http://webchat.freenode.net/?channels=web2py&#x27;)]</div></td></tr></table></div></td></tr><tr><td><div><table><tr><td><div>Plugins</div></td></tr><tr><td><div>False</div></td></tr><tr><td><div>None</div></td></tr><tr><td><div>[(&#x27;plugin_wiki&#x27;, False, &#x27;http://web2py.com/examples/default/download&#x27;), (&lt;lazyT &#x27;Other Plugins&#x27;&gt;, False, &#x27;http://web2py.com/plugins&#x27;), (&lt;lazyT &#x27;Layout Plugins&#x27;&gt;, False, &#x27;http://web2py.com/layouts&#x27;)]</div></td></tr></table></div></td></tr></table></div></td></tr></table></div></td></tr></table></div></td></tr><tr><td style="font-weight:bold;vertical-align:top;">meta</td><td style="vertical-align:top;">:</td><td><div><table><tr><td style="font-weight:bold;vertical-align:top;">author</td><td style="vertical-align:top;">:</td><td><div>Your Name &lt;you@example.com&gt;</div></td></tr><tr><td style="font-weight:bold;vertical-align:top;">generator</td><td style="vertical-align:top;">:</td><td><div>Web2py Web Framework</div></td></tr><tr><td style="font-weight:bold;vertical-align:top;">keywords</td><td style="vertical-align:top;">:</td><td><div>web2py, python, framework</div></td></tr></table></div></td></tr><tr><td style="font-weight:bold;vertical-align:top;">models_to_run</td><td style="vertical-align:top;">:</td><td><div><table><tr><td><div>^\\w+\\.py$</div></td></tr><tr><td><div>^default/\\w+\\.py$</div></td></tr><tr><td><div>^default/index/\\w+\\.py$</div></td></tr></table></div></td></tr><tr><td style="font-weight:bold;vertical-align:top;">postprocessing</td><td style="vertical-align:top;">:</td><td><div><table></table></div></td></tr><tr><td style="font-weight:bold;vertical-align:top;">session_client</td><td style="vertical-align:top;">:</td><td><div>127.0.0.1</div></td></tr><tr><td style="font-weight:bold;vertical-align:top;">session_cookie_compression_level</td><td style="vertical-align:top;">:</td><td><div>None</div></td></tr><tr><td style="font-weight:bold;vertical-align:top;">session_cookie_expires</td><td style="vertical-align:top;">:</td><td><div>None</div></td></tr><tr><td style="font-weight:bold;vertical-align:top;">session_cookie_key</td><td style="vertical-align:top;">:</td><td><div>None</div></td></tr><tr><td style="font-weight:bold;vertical-align:top;">session_data_name</td><td style="vertical-align:top;">:</td><td><div>session_data_arduino_scada</div></td></tr><tr><td style="font-weight:bold;vertical-align:top;">session_file</td><td style="vertical-align:top;">:</td><td><div>&lt;open file &#x27;/home/ismael/Escritorio/web2py/applications/arduino_scada/sessions/093/054/127.0.0.1-a3b98bd8-fef9-42ca-ade8-50d788df8f6b&#x27;, mode &#x27;rb+&#x27; at 0x7fbdb43c7390&gt;</div></td></tr><tr><td style="font-weight:bold;vertical-align:top;">session_filename</td><td style="vertical-align:top;">:</td><td><div>/home/ismael/Escritorio/web2py/applications/arduino_scada/sessions/127.0.0.1-a3b98bd8-fef9-42ca-ade8-50d788df8f6b</div></td></tr><tr><td style="font-weight:bold;vertical-align:top;">session_hash</td><td style="vertical-align:top;">:</td><td><div>2874c3fe776d47353f93086b482b89cd</div></td></tr><tr><td style="font-weight:bold;vertical-align:top;">session_id</td><td style="vertical-align:top;">:</td><td><div>127.0.0.1-a3b98bd8-fef9-42ca-ade8-50d788df8f6b</div></td></tr><tr><td style="font-weight:bold;vertical-align:top;">session_id_name</td><td style="vertical-align:top;">:</td><td><div>session_id_arduino_scada</div></td></tr><tr><td style="font-weight:bold;vertical-align:top;">session_locked</td><td style="vertical-align:top;">:</td><td><div>True</div></td></tr><tr><td style="font-weight:bold;vertical-align:top;">session_masterapp</td><td style="vertical-align:top;">:</td><td><div>arduino_scada</div></td></tr><tr><td style="font-weight:bold;vertical-align:top;">session_new</td><td style="vertical-align:top;">:</td><td><div>False</div></td></tr><tr><td style="font-weight:bold;vertical-align:top;">session_storage_type</td><td style="vertical-align:top;">:</td><td><div>file</div></td></tr><tr><td style="font-weight:bold;vertical-align:top;">status</td><td style="vertical-align:top;">:</td><td><div>200</div></td></tr><tr><td style="font-weight:bold;vertical-align:top;">subtitle</td><td style="vertical-align:top;">:</td><td><div></div></td></tr><tr><td style="font-weight:bold;vertical-align:top;">title</td><td style="vertical-align:top;">:</td><td><div>Arduino Scada</div></td></tr><tr><td style="font-weight:bold;vertical-align:top;">view</td><td style="vertical-align:top;">:</td><td><div>default/index.html</div></td></tr></table></div>'
tRp124
sS'locals'
p125
(dp126
S'Service'
p127
S"<class 'gluon.tools.Service'>"
p128
sS'OBJECT'
p129
S"<class 'gluon.html.OBJECT'>"
p130
sS'SQLDB'
p131
S"<class 'gluon.dal.DAL'>"
p132
sg117
S"<Storage {'_user_agent': <Storage {'os': <Storag...version': '38.0.2125.104', 'name': 'Chrome'}>}>}>"
p133
sS'LINK'
p134
S"<class 'gluon.html.LINK'>"
p135
sS'BR'
p136
S"<class 'gluon.html.BR'>"
p137
sS'local_import'
p138
S'<function <lambda>>'
p139
sS'OPTGROUP'
p140
S"<class 'gluon.html.OPTGROUP'>"
p141
sS'__package__'
p142
S'None'
p143
sS'PRE'
p144
S"<class 'gluon.html.PRE'>"
p145
sS'IS_INT_IN_RANGE'
p146
S"<class 'gluon.validators.IS_INT_IN_RANGE'>"
p147
sS'left_sidebar_enabled'
p148
S'False'
p149
sS'IS_LOWER'
p150
S"<class 'gluon.validators.IS_LOWER'>"
p151
sS'IS_STRONG'
p152
S"<class 'gluon.validators.IS_STRONG'>"
p153
sS'cache'
p154
S'<gluon.cache.Cache object>'
p155
sS'IS_IN_DB'
p156
S"<class 'gluon.validators.IS_IN_DB'>"
p157
sS'TAG'
p158
S'<gluon.html.__TAG__ object>'
p159
sS'SQLField'
p160
S"<class 'gluon.dal.Field'>"
p161
sS'mail'
p162
S'<gluon.tools.Mail object>'
p163
sS'BODY'
p164
S"<class 'gluon.html.BODY'>"
p165
sS'IS_DATE_IN_RANGE'
p166
S"<class 'gluon.validators.IS_DATE_IN_RANGE'>"
p167
sS'IFRAME'
p168
S"<class 'gluon.html.IFRAME'>"
p169
sS'URL'
p170
S'<function URL>'
p171
sS'__file__'
p172
S"'/home/ismael/Escritorio/web2py/applications/arduino_scada/views/default/index.html'"
p173
sS'db'
p174
S'<DAL uri="sqlite://storage.sqlite">'
p175
sS'auth'
p176
S'<gluon.tools.Auth object>'
p177
sS'P'
S"<class 'gluon.html.P'>"
p178
sS'TFOOT'
p179
S"<class 'gluon.html.TFOOT'>"
p180
sS'XHTML'
p181
S"<class 'gluon.html.XHTML'>"
p182
sS'ON'
p183
S'True'
p184
sS'OL'
p185
S"<class 'gluon.html.OL'>"
p186
sS'TEXTAREA'
p187
S"<class 'gluon.html.TEXTAREA'>"
p188
sS'MENU'
p189
S"<class 'gluon.html.MENU'>"
p190
sS'IS_IMAGE'
p191
S"<class 'gluon.validators.IS_IMAGE'>"
p192
sS'EM'
p193
S"<class 'gluon.html.EM'>"
p194
sS'CODE'
p195
S"<class 'gluon.html.CODE'>"
p196
sS'HTTP'
p197
S"<class 'gluon.http.HTTP'>"
p198
sS'HR'
p199
S"<class 'gluon.html.HR'>"
p200
sS'IS_DATETIME'
p201
S"<class 'gluon.validators.IS_DATETIME'>"
p202
sS'STYLE'
p203
S"<class 'gluon.html.STYLE'>"
p204
sS'LABEL'
p205
S"<class 'gluon.html.LABEL'>"
p206
sS'CLEANUP'
p207
S"<class 'gluon.validators.CLEANUP'>"
p208
sS'plugins'
p209
S'<gluon.tools.PluginManager object>'
p210
sS'SELECT'
p211
S"<class 'gluon.html.SELECT'>"
p212
sS'use_janrain'
p213
S'<function use_janrain>'
p214
sS'CENTER'
p215
S"<class 'gluon.html.CENTER'>"
p216
sS'Auth'
p217
S"<class 'gluon.tools.Auth'>"
p218
sS'DEVELOPMENT_MENU'
p219
g184
sS'__builtins__'
p220
S"{'ArithmeticError': <type 'exceptions.ArithmeticError'>, 'AssertionError': <type 'exceptions.AssertionError'>, 'AttributeError': <type 'exceptions.AttributeError'>, 'BaseException': <type 'exceptions.BaseException'>, 'BufferError': <type 'exceptions.BufferError'>, 'BytesWarning': <type 'exceptions.BytesWarning'>, 'DeprecationWarning': <type 'exceptions.DeprecationWarning'>, 'EOFError': <type 'exceptions.EOFError'>, 'Ellipsis': Ellipsis, 'EnvironmentError': <type 'exceptions.EnvironmentError'>, ...}"
p221
sS'HTML'
p222
S"<class 'gluon.html.HTML'>"
p223
sS'SQLFORM'
p224
S"<class 'gluon.sqlhtml.SQLFORM'>"
p225
sS'LOAD'
p226
S'<function LOAD>'
p227
sS'redirect'
p228
S'<function redirect>'
p229
sS'FIELDSET'
p230
S"<class 'gluon.html.FIELDSET'>"
p231
sS'IS_EQUAL_TO'
p232
S"<class 'gluon.validators.IS_EQUAL_TO'>"
p233
sS'embed64'
p234
S'<function embed64>'
p235
sS'IS_LIST_OF'
p236
S"<class 'gluon.validators.IS_LIST_OF'>"
p237
sS'INPUT'
p238
S"<class 'gluon.html.INPUT'>"
p239
sS'EMBED'
p240
S"<class 'gluon.html.EMBED'>"
p241
sS'_'
S'<function _>'
p242
sS'H2'
p243
S"<class 'gluon.html.H2'>"
p244
sS'H3'
p245
S"<class 'gluon.html.H3'>"
p246
sS'BUTTON'
p247
S"<class 'gluon.html.BUTTON'>"
p248
sS'H1'
p249
S"<class 'gluon.html.H1'>"
p250
sS'H6'
p251
S"<class 'gluon.html.H6'>"
p252
sS'H4'
p253
S"<class 'gluon.html.H4'>"
p254
sS'H5'
p255
S"<class 'gluon.html.H5'>"
p256
sS'UL'
p257
S"<class 'gluon.html.UL'>"
p258
sS'IS_UPPER'
p259
S"<class 'gluon.validators.IS_UPPER'>"
p260
sS'xmlescape'
p261
S'<function xmlescape>'
p262
sS'IS_TIME'
p263
S"<class 'gluon.validators.IS_TIME'>"
p264
sS'OPTION'
p265
S"<class 'gluon.html.OPTION'>"
p266
sS'TITLE'
p267
S"<class 'gluon.html.TITLE'>"
p268
sS'CRYPT'
p269
S"<class 'gluon.validators.CRYPT'>"
p270
sS'IS_EMPTY_OR'
p271
S"<class 'gluon.validators.IS_EMPTY_OR'>"
p272
sS'MARKMIN'
p273
S"<class 'gluon.html.MARKMIN'>"
p274
sS'__name__'
p275
S"'__restricted__'"
p276
sS'message'
p277
S"<lazyT 'Hello World'>"
p278
sS'STRONG'
p279
S"<class 'gluon.html.STRONG'>"
p280
sS'COL'
p281
S"<class 'gluon.html.COL'>"
p282
sS'service'
p283
S'<gluon.tools.Service object>'
p284
sS'SCRIPT'
p285
S"<class 'gluon.html.SCRIPT'>"
p286
sS'is_mobile'
p287
g149
sS'TABLE'
p288
S"<class 'gluon.html.TABLE'>"
p289
sS'IS_IPV4'
p290
S"<class 'gluon.validators.IS_IPV4'>"
p291
sS'IS_LENGTH'
p292
S"<class 'gluon.validators.IS_LENGTH'>"
p293
sS'IS_IPV6'
p294
S"<class 'gluon.validators.IS_IPV6'>"
p295
sS'XML'
p296
S"<class 'gluon.html.XML'>"
p297
sS'B'
S"<class 'gluon.html.B'>"
p298
sS'IMG'
p299
S"<class 'gluon.html.IMG'>"
p300
sS'SQLTABLE'
p301
S"<class 'gluon.sqlhtml.SQLTABLE'>"
p302
sS'IS_MATCH'
p303
S"<class 'gluon.validators.IS_MATCH'>"
p304
sS'IS_ALPHANUMERIC'
p305
S"<class 'gluon.validators.IS_ALPHANUMERIC'>"
p306
sS'SPAN'
p307
S"<class 'gluon.html.SPAN'>"
p308
sS'IS_JSON'
p309
S"<class 'gluon.validators.IS_JSON'>"
p310
sS'IS_IPADDRESS'
p311
S"<class 'gluon.validators.IS_IPADDRESS'>"
p312
sS'IS_SLUG'
p313
S"<class 'gluon.validators.IS_SLUG'>"
p314
sS'BEAUTIFY'
p315
S"<class 'gluon.html.BEAUTIFY'>"
p316
sS'META'
p317
S"<class 'gluon.html.META'>"
p318
sS'IS_DATE'
p319
S"<class 'gluon.validators.IS_DATE'>"
p320
sS'IS_EMAIL'
p321
S"<class 'gluon.validators.IS_EMAIL'>"
p322
sS'IS_NOT_EMPTY'
p323
S"<class 'gluon.validators.IS_NOT_EMPTY'>"
p324
sS'IS_FLOAT_IN_RANGE'
p325
S"<class 'gluon.validators.IS_FLOAT_IN_RANGE'>"
p326
sS'TBODY'
p327
S"<class 'gluon.html.TBODY'>"
p328
sS'CAT'
p329
S"<class 'gluon.html.CAT'>"
p330
sS'Field'
p331
S"<class 'gluon.dal.Field'>"
p332
sS'IS_LIST_OF_EMAILS'
p333
S"<class 'gluon.validators.IS_LIST_OF_EMAILS'>"
p334
sS'middle_columns'
p335
S"'span9'"
p336
sS'DIV'
p337
S"<class 'gluon.html.DIV'>"
p338
sS'LEGEND'
p339
S"<class 'gluon.html.LEGEND'>"
p340
sS'COLGROUP'
p341
S"<class 'gluon.html.COLGROUP'>"
p342
sS'DAL'
p343
S"<class 'gluon.dal.DAL'>"
p344
sS'ASSIGNJS'
p345
S'<function ASSIGNJS>'
p346
sS'TR'
p347
S"<class 'gluon.html.TR'>"
p348
sS'LI'
p349
S"<class 'gluon.html.LI'>"
p350
sS'right_sidebar_enabled'
p351
g184
sS'TH'
p352
S"<class 'gluon.html.TH'>"
p353
sS'TD'
p354
S"<class 'gluon.html.TD'>"
p355
sS'PluginManager'
p356
S"<class 'gluon.tools.PluginManager'>"
p357
sS'IS_URL'
p358
S"<class 'gluon.validators.IS_URL'>"
p359
sS'A'
S"<class 'gluon.html.A'>"
p360
sS'HEAD'
p361
S"<class 'gluon.html.HEAD'>"
p362
sS'IS_DATETIME_IN_RANGE'
p363
S"<class 'gluon.validators.IS_DATETIME_IN_RANGE'>"
p364
sS'FORM'
p365
S"<class 'gluon.html.FORM'>"
p366
sS'I'
S"<class 'gluon.html.I'>"
p367
sS'IS_NOT_IN_DB'
p368
S"<class 'gluon.validators.IS_NOT_IN_DB'>"
p369
sg123
S"<Storage {'body': <cStringIO.StringO object at 0...t 0x7fbd981f96e0>, 'view': 'default/index.html'}>"
p370
sS'THEAD'
p371
S"<class 'gluon.html.THEAD'>"
p372
sS'ANY_OF'
p373
S"<class 'gluon.validators.ANY_OF'>"
p374
sS'IS_NULL_OR'
p375
S"<class 'gluon.validators.IS_EMPTY_OR'>"
p376
sg56
S"<Storage {'_vars': None, 'function': 'index', 'c.../Escritorio/web2py/applications/arduino_scada/'}>"
p377
sS'IS_EXPR'
p378
S"<class 'gluon.validators.IS_EXPR'>"
p379
sS'T'
S'<gluon.languages.translator object>'
p380
sS'IS_IN_SET'
p381
S"<class 'gluon.validators.IS_IN_SET'>"
p382
sS'IS_UPLOAD_FILENAME'
p383
S"<class 'gluon.validators.IS_UPLOAD_FILENAME'>"
p384
sS'TT'
p385
S"<class 'gluon.html.TT'>"
p386
sS'IS_DECIMAL_IN_RANGE'
p387
S"<class 'gluon.validators.IS_DECIMAL_IN_RANGE'>"
p388
sssS'traceback'
p389
S'Traceback (most recent call last):\n  File "/home/ismael/Escritorio/web2py/gluon/restricted.py", line 224, in restricted\n    exec ccode in environment\n  File "/home/ismael/Escritorio/web2py/applications/arduino_scada/views/default/index.html", line 95, in <module>\n    <path\nNameError: name \'grid\' is not defined\n'
p390
s.