(dp1
S'output'
p2
S"<type 'exceptions.TypeError'> int() argument must be a string or a number, not 'NoneType'"
p3
sS'layer'
p4
S'/home/ismael/Escritorio/web2py/applications/arduino_scada/controllers/default.py'
p5
sS'code'
p6
S'# -*- coding: utf-8 -*-\n# this file is released under public domain and you can use without limitations\n\n#########################################################################\n## This is a sample controller\n## - index is the default action of any application\n## - user is required for authentication and authorization\n## - download is for downloading files uploaded in the db (does streaming)\n## - api is an example of Hypermedia API support and access control\n#########################################################################\nimport serial\nimport time\n\ndef index():\n    \n    response.flash = T("Welcome to web2py!")\n    return dict(message=T(\'Hello World\'))\n    \ndef recibe_datos():\n\t\n\tvalor=int(request.vars.Valor)\n\tvalor2=int(request.vars.Valor2)\n\t\n\t\n\tif (valor==1):\n\t\tcadena=\'a\'\n\t\n\tif (valor2==0):\n\t\tcadena=\'b\'\n\t\n\t# Creamos el objeto puerto_Serie con la clase Serial\n\tpuerto_Serie=serial.Serial(\'/dev/ttyACM1\', 9600)   # En windows COM34\n\n\t# Cerramos y abrimos el puerto para asegurarnos que lo tenemos para nuestra aplicacion en python\n\tpuerto_Serie.close()\n\tpuerto_Serie.open()\n\n\trecibido=""   # Inicializamos recibido\n\n\twhile True:   # Bucle#FFA500 infinito\n\t\t\n\t\t## VER LO QUE ESTA LLEGANDO\n\t\t\n\t\ttime.sleep(0.1)   # Peque\xc3\xb1o tiempo de espera para esperar \n\t\t\n\t\trecibido=puerto_Serie.readline()   # Imprima lo que haya en el buffer de recepcion, lo que manda arduino\n\t\tprint recibido\n\t   \n\t\t## ENCENDER (a), Y APAGAR (b) \n\t\t\n\t\t\n\t\t#cadena=raw_input(">")     # Introducimos por teclado lo que vamos a enviar "a o b" \n\t\t#cadena = \'ab\'   # Escibimos constantemente ab\n\t\tpuerto_Serie.write(cadena)   # Mandamos por puerto serie lo le\xc3\xaddo desde el teclado\n\t\t\n\t\ttime.sleep(0.1)   # Peque\xc3\xb1o tiempo de espera para esperar\n\t\n\t\t\ndef user():\n    """\n    exposes:\n    http://..../[app]/default/user/login\n    http://..../[app]/default/user/logout\n    http://..../[app]/default/user/register\n    http://..../[app]/default/user/profile\n    http://..../[app]/default/user/retrieve_password\n    http://..../[app]/default/user/change_password\n    http://..../[app]/default/user/manage_users (requires membership in\n    use @auth.requires_login()\n        @auth.requires_membership(\'group name\')\n        @auth.requires_permission(\'read\',\'table name\',record_id)\n    to decorate functions that need access control\n    """\n    return dict(form=auth())\n\n\n@cache.action()\ndef download():\n    """\n    allows downloading of uploaded files\n    http://..../[app]/default/download/[filename]\n    """\n    return response.download(request, db)\n\n\ndef call():\n    """\n    exposes services. for example:\n    http://..../[app]/default/call/jsonrpc\n    decorate with @services.jsonrpc the functions to expose\n    supports xml, json, xmlrpc, jsonrpc, amfrpc, rss, csv\n    """\n    return service()\n\n\n@auth.requires_login() \ndef api():\n    """\n    this is example of API with access control\n    WEB2PY provides Hypermedia API (Collection+JSON) Experimental\n    """\n    from gluon.contrib.hypermedia import Collection\n    rules = {\n        \'<tablename>\': {\'GET\':{},\'POST\':{},\'PUT\':{},\'DELETE\':{}},\n        }\n    return Collection(db).process(request,response,rules)\n\nresponse._vars=response._caller(recibe_datos)\n'
p7
sS'snapshot'
p8
(dp9
sS'traceback'
p10
S'Traceback (most recent call last):\n  File "/home/ismael/Escritorio/web2py/gluon/restricted.py", line 224, in restricted\n    exec ccode in environment\n  File "/home/ismael/Escritorio/web2py/applications/arduino_scada/controllers/default.py", line 108, in <module>\n  File "/home/ismael/Escritorio/web2py/gluon/globals.py", line 392, in <lambda>\n    self._caller = lambda f: f()\n  File "/home/ismael/Escritorio/web2py/applications/arduino_scada/controllers/default.py", line 22, in recibe_datos\n    valor2=int(request.vars.Valor2)\nTypeError: int() argument must be a string or a number, not \'NoneType\'\n'
p11
s.