(dp1
S'output'
p2
S"<type 'exceptions.AttributeError'> 'Table' object has no attribute 'in1'"
p3
sS'layer'
p4
S'/home/ismael/Escritorio/web2py/applications/scada/controllers/default.py'
p5
sS'code'
p6
S'# -*- coding: utf-8 -*-\n# this file is released under public domain and you can use without limitations\n\n#########################################################################\n## This is a sample controller\n## - index is the default action of any application\n## - user is required for authentication and authorization\n## - download is for downloading files uploaded in the db (does streaming)\n## - api is an example of Hypermedia API support and access control\n#########################################################################\n\ndef index():\n    \n\tgrid = SQLFORM.grid(db.entradas,details=False,csv=False)\n\treturn dict(grid=grid)\n\t\ndef piloto():\n\t\n\t#print db.entradas[1]  # Imprime la informacion del diccionario del id 1 de la tabla entradas db.entradas\n\t\n\tif db.entradas["in1"].Valor==True:   # Obtiene de la tabla db.entradas, mediante el id [x], mediante el campo .Valor el vaor booleano de la variable con ese id\n\t\tnum=0     # La variable num la igualamos a 0 y la enviamos al final\n\t\n\tif db.entradas[1].Valor==False:\n\t\tnum=1\n\t\n\treturn num\n\ndef nivel():\n\t\n\tnumero=db.entradas[5].Nivel\n\treturn numero\n\t\ndef num():\n\t\n\tnumero_decimal=db.entradas[6].Num\n\treturn numero_decimal\n\t\n\t\n\ndef user():\n    """\n    exposes:\n    http://..../[app]/default/user/login\n    http://..../[app]/default/user/logout\n    http://..../[app]/default/user/register\n    http://..../[app]/default/user/profile\n    http://..../[app]/default/user/retrieve_password\n    http://..../[app]/default/user/change_password\n    http://..../[app]/default/user/manage_users (requires membership in\n    use @auth.requires_login()\n        @auth.requires_membership(\'group name\')\n        @auth.requires_permission(\'read\',\'table name\',record_id)\n    to decorate functions that need access control\n    """\n    return dict(form=auth())\n\n\n@cache.action()\ndef download():\n    """\n    allows downloading of uploaded files\n    http://..../[app]/default/download/[filename]\n    """\n    return response.download(request, db)\n\n\ndef call():\n    """\n    exposes services. for example:\n    http://..../[app]/default/call/jsonrpc\n    decorate with @services.jsonrpc the functions to expose\n    supports xml, json, xmlrpc, jsonrpc, amfrpc, rss, csv\n    """\n    return service()\n\n\n@auth.requires_login() \ndef api():\n    """\n    this is example of API with access control\n    WEB2PY provides Hypermedia API (Collection+JSON) Experimental\n    """\n    from gluon.contrib.hypermedia import Collection\n    rules = {\n        \'<tablename>\': {\'GET\':{},\'POST\':{},\'PUT\':{},\'DELETE\':{}},\n        }\n    return Collection(db).process(request,response,rules)\n\nresponse._vars=response._caller(piloto)\n'
p7
sS'snapshot'
p8
(dp9
sS'traceback'
p10
S'Traceback (most recent call last):\n  File "/home/ismael/Escritorio/web2py/gluon/restricted.py", line 224, in restricted\n    exec ccode in environment\n  File "/home/ismael/Escritorio/web2py/applications/scada/controllers/default.py", line 90, in <module>\n  File "/home/ismael/Escritorio/web2py/gluon/globals.py", line 392, in <lambda>\n    self._caller = lambda f: f()\n  File "/home/ismael/Escritorio/web2py/applications/scada/controllers/default.py", line 21, in piloto\n    if db.entradas["in1"].Valor==True:   # Obtiene de la tabla db.entradas, mediante el id [x], mediante el campo .Valor el vaor booleano de la variable con ese id\n  File "/home/ismael/Escritorio/web2py/gluon/dal.py", line 9110, in __getitem__\n    return ogetattr(self, str(key))\nAttributeError: \'Table\' object has no attribute \'in1\'\n'
p11
s.