(dp1
S'output'
p2
S"<class 'socket.timeout'> timed out"
p3
sS'layer'
p4
S'/home/ismael/Escritorio/web2py/applications/Modbus_S7/controllers/default.py'
p5
sS'code'
p6
S'# -*- coding: utf-8 -*-\n\n# Importamos las librerias de modbus\nimport modbus_tk\nimport modbus_tk.defines as cst\nimport modbus_tk.modbus_tcp as modbus_tcp\n\ndef index():\n    \n    response.flash = T("Welcome to web2py!")\n    return dict(message=T(\'Hello World\'))\n      \n# Funcion de lectura de PLC de entradas y salidas\ndef Lectura_PLC():\n\n\t\t\t\t    # host="192.168.1.10",\n    master = modbus_tcp.TcpMaster(host="192.168.1.10",port=5000)  # Conexion modbus tcp con la ip del esclavo y puerto del esclavo\n    \n    lectura=master.execute(1,cst.READ_HOLDING_REGISTERS,0,16)\n    \n    dic = {"DATOS":lectura}\n\n    return dic\n\n\n# ESCRITURA DE SALIDAS\ndef Escribir_OUT():\n                                  # host="192.168.1.10",\n    master = modbus_tcp.TcpMaster(host="192.168.1.10",port=5000) \n    \n    numero=int(request.vars.numero)\n    \n    if numero==0:\n\tmaster.execute(1, cst.WRITE_SINGLE_REGISTER, 8, output_value=1)\n    if numero==1:\n\tmaster.execute(1, cst.WRITE_SINGLE_REGISTER, 8, output_value=0)\n    \n    if numero==2:\n\tmaster.execute(1, cst.WRITE_SINGLE_REGISTER, 9, output_value=1)\n    if numero==3:\n\tmaster.execute(1, cst.WRITE_SINGLE_REGISTER, 9, output_value=0)\n    \n    if numero==4:\n\tmaster.execute(1, cst.WRITE_SINGLE_REGISTER, 10, output_value=1)\n    if numero==5:\n\tmaster.execute(1, cst.WRITE_SINGLE_REGISTER, 10, output_value=0)\n    \n    if numero==6:\n\tmaster.execute(1, cst.WRITE_SINGLE_REGISTER, 11, output_value=1)\n    if numero==7:\n\tmaster.execute(1, cst.WRITE_SINGLE_REGISTER, 11, output_value=0)\n    \n    if numero==8:\n\tmaster.execute(1, cst.WRITE_SINGLE_REGISTER, 12, output_value=1)\n    if numero==9:\n\tmaster.execute(1, cst.WRITE_SINGLE_REGISTER, 12, output_value=0)\n\t\n    if numero==10:\n\tmaster.execute(1, cst.WRITE_SINGLE_REGISTER, 13, output_value=1)\n    if numero==11:\n\tmaster.execute(1, cst.WRITE_SINGLE_REGISTER, 13, output_value=0)\n    \n    if numero==12:\n\tmaster.execute(1, cst.WRITE_SINGLE_REGISTER, 14, output_value=1)\n    if numero==13:\n\tmaster.execute(1, cst.WRITE_SINGLE_REGISTER, 14, output_value=0)\n    \n    if numero==14:\n\tmaster.execute(1, cst.WRITE_SINGLE_REGISTER, 15, output_value=1)\n    if numero==15:\n\tmaster.execute(1, cst.WRITE_SINGLE_REGISTER, 15, output_value=0)\n        \n    #return numero\n\ndef user():\n    """\n    exposes:\n    http://..../[app]/default/user/login\n    http://..../[app]/default/user/logout\n    http://..../[app]/default/user/register\n    http://..../[app]/default/user/profile\n    http://..../[app]/default/user/retrieve_password\n    http://..../[app]/default/user/change_password\n    http://..../[app]/default/user/manage_users (requires membership in\n    use @auth.requires_login()\n        @auth.requires_membership(\'group name\')\n        @auth.requires_permission(\'read\',\'table name\',record_id)\n    to decorate functions that need access control\n    """\n    return dict(form=auth())\n\n@cache.action()\ndef download():\n    """\n    allows downloading of uploaded files\n    http://..../[app]/default/download/[filename]\n    """\n    return response.download(request, db)\n\ndef call():\n    """\n    exposes services. for example:\n    http://..../[app]/default/call/jsonrpc\n    decorate with @services.jsonrpc the functions to expose\n    supports xml, json, xmlrpc, jsonrpc, amfrpc, rss, csv\n    """\n    return service()\n\n@auth.requires_login() \ndef api():\n    """\n    this is example of API with access control\n    WEB2PY provides Hypermedia API (Collection+JSON) Experimental\n    """\n    from gluon.contrib.hypermedia import Collection\n    rules = {\n        \'<tablename>\': {\'GET\':{},\'POST\':{},\'PUT\':{},\'DELETE\':{}},\n        }\n    return Collection(db).process(request,response,rules)\n\n\nresponse._vars=response._caller(Lectura_PLC)\n'
p7
sS'snapshot'
p8
(dp9
sS'traceback'
p10
S'Traceback (most recent call last):\n  File "/home/ismael/Escritorio/web2py/gluon/restricted.py", line 224, in restricted\n    exec ccode in environment\n  File "/home/ismael/Escritorio/web2py/applications/Modbus_S7/controllers/default.py", line 122, in <module>\n  File "/home/ismael/Escritorio/web2py/gluon/globals.py", line 392, in <lambda>\n    self._caller = lambda f: f()\n  File "/home/ismael/Escritorio/web2py/applications/Modbus_S7/controllers/default.py", line 19, in Lectura_PLC\n    lectura=master.execute(1,cst.READ_HOLDING_REGISTERS,0,16)\n  File "modbus_tk/utils.py", line 26, in new\n    raise excpt\ntimeout: timed out\n'
p11
s.